(dp1
S'output'
p2
S"<type 'exceptions.NameError'> global name 'ti' is not defined"
p3
sS'layer'
p4
S'/Users/emir/Documents/beardcode/web2py/applications/contador/controllers/default.py'
p5
sS'code'
p6
S"# -*- coding: utf-8 -*-\n# this file is released under public domain and you can use without limitations\n\n#########################################################################\n## This is a samples controller\n## - index is the default action of any application\n## - user is required for authentication and authorization\n## - download is for downloading files uploaded in the db (does streaming)\n## - call exposes all registered services (none by default)\n#########################################################################\n\ntit = 'Contador de visitas'\n\ndef index():\n    if not session.counter:\n        session.counter = 1\n    else:\n        session.counter += 1\n    return dict(nv=session.counter,ti=ti)\n\nresponse._vars=response._caller(index)\n"
p7
sS'snapshot'
p8
(dp9
S'exception'
p10
(dp11
S'__hash__'
p12
S"<method-wrapper '__hash__' of exceptions.NameError object>"
p13
sS'__setattr__'
p14
S"<method-wrapper '__setattr__' of exceptions.NameError object>"
p15
sS'__reduce_ex__'
p16
S'<built-in method __reduce_ex__ of exceptions.NameError object>'
p17
sS'__getslice__'
p18
S"<method-wrapper '__getslice__' of exceptions.NameError object>"
p19
sS'__getitem__'
p20
S"<method-wrapper '__getitem__' of exceptions.NameError object>"
p21
sS'__setstate__'
p22
S'<built-in method __setstate__ of exceptions.NameError object>'
p23
sS'args'
p24
S'("global name \'ti\' is not defined",)'
p25
sS'__reduce__'
p26
S'<built-in method __reduce__ of exceptions.NameError object>'
p27
sS'__str__'
p28
S"<method-wrapper '__str__' of exceptions.NameError object>"
p29
sS'__format__'
p30
S'<built-in method __format__ of exceptions.NameError object>'
p31
sS'__getattribute__'
p32
S"<method-wrapper '__getattribute__' of exceptions.NameError object>"
p33
sS'__class__'
p34
S"<type 'exceptions.NameError'>"
p35
sS'__unicode__'
p36
S'<built-in method __unicode__ of exceptions.NameError object>'
p37
sS'__delattr__'
p38
S"<method-wrapper '__delattr__' of exceptions.NameError object>"
p39
sS'__subclasshook__'
p40
S'<built-in method __subclasshook__ of type object>'
p41
sS'__repr__'
p42
S"<method-wrapper '__repr__' of exceptions.NameError object>"
p43
sS'__dict__'
p44
S'{}'
p45
sS'__sizeof__'
p46
S'<built-in method __sizeof__ of exceptions.NameError object>'
p47
sS'__doc__'
p48
S"'Name not found globally.'"
p49
sS'__init__'
p50
S"<method-wrapper '__init__' of exceptions.NameError object>"
p51
sS'__new__'
p52
S'<built-in method __new__ of type object>'
p53
ssS'evalue'
p54
S"global name 'ti' is not defined"
p55
sS'request'
p56
ccopy_reg
_reconstructor
p57
(cgluon.html
BEAUTIFY
p58
c__builtin__
object
p59
NtRp60
(dp61
S'attributes'
p62
(dp63
sS'components'
p64
(lp65
g57
(cgluon.html
TABLE
p66
g59
NtRp67
(dp68
g62
(dp69
S'level'
p70
I5
ssS'parent'
p71
Nsg64
(lp72
g57
(cgluon.html
TR
p73
g59
NtRp74
(dp75
g62
(dp76
sg71
g67
sg64
(lp77
g57
(cgluon.html
TD
p78
g59
NtRp79
(dp80
g62
(dp81
S'_style'
p82
S'font-weight:bold;vertical-align:top'
p83
ssg71
g74
sg64
(lp84
S'ajax'
p85
asbag57
(g78
g59
NtRp86
(dp87
g62
(dp88
S'_valign'
p89
S'top'
p90
ssg71
g74
sg64
(lp91
S':'
asbag57
(g78
g59
NtRp92
(dp93
g62
(dp94
sg71
g74
sg64
(lp95
g57
(g58
g59
NtRp96
(dp97
g62
(dp98
g70
I5
ssg71
g92
sg64
(lp99
S'False'
p100
asbasbasbag57
(g73
g59
NtRp101
(dp102
g62
(dp103
sg71
g67
sg64
(lp104
g57
(g78
g59
NtRp105
(dp106
g62
(dp107
g82
g83
ssg71
g101
sg64
(lp108
S'application'
p109
asbag57
(g78
g59
NtRp110
(dp111
g62
(dp112
g89
g90
ssg71
g101
sg64
(lp113
S':'
asbag57
(g78
g59
NtRp114
(dp115
g62
(dp116
sg71
g101
sg64
(lp117
g57
(g58
g59
NtRp118
(dp119
g62
(dp120
g70
I5
ssg71
g114
sg64
(lp121
S'contador'
p122
asbasbasbag57
(g73
g59
NtRp123
(dp124
g62
(dp125
sg71
g67
sg64
(lp126
g57
(g78
g59
NtRp127
(dp128
g62
(dp129
g82
g83
ssg71
g123
sg64
(lp130
g24
asbag57
(g78
g59
NtRp131
(dp132
g62
(dp133
g89
g90
ssg71
g123
sg64
(lp134
S':'
asbag57
(g78
g59
NtRp135
(dp136
g62
(dp137
sg71
g123
sg64
(lp138
g57
(g58
g59
NtRp139
(dp140
g62
(dp141
g70
I5
ssg71
g135
sg64
(lp142
g57
(g66
g59
NtRp143
(dp144
g62
(dp145
g70
I4
ssg71
Nsg64
(lp146
sbasbasbasbag57
(g73
g59
NtRp147
(dp148
g62
(dp149
sg71
g67
sg64
(lp150
g57
(g78
g59
NtRp151
(dp152
g62
(dp153
g82
g83
ssg71
g147
sg64
(lp154
S'body'
p155
asbag57
(g78
g59
NtRp156
(dp157
g62
(dp158
g89
g90
ssg71
g147
sg64
(lp159
S':'
asbag57
(g78
g59
NtRp160
(dp161
g62
(dp162
sg71
g147
sg64
(lp163
g57
(g58
g59
NtRp164
(dp165
g62
(dp166
g70
I5
ssg71
g160
sg64
(lp167
S'<cStringIO.StringO object at 0x110643810>'
p168
asbasbasbag57
(g73
g59
NtRp169
(dp170
g62
(dp171
sg71
g67
sg64
(lp172
g57
(g78
g59
NtRp173
(dp174
g62
(dp175
g82
g83
ssg71
g169
sg64
(lp176
S'client'
p177
asbag57
(g78
g59
NtRp178
(dp179
g62
(dp180
g89
g90
ssg71
g169
sg64
(lp181
S':'
asbag57
(g78
g59
NtRp182
(dp183
g62
(dp184
sg71
g169
sg64
(lp185
g57
(g58
g59
NtRp186
(dp187
g62
(dp188
g70
I5
ssg71
g182
sg64
(lp189
S'127.0.0.1'
p190
asbasbasbag57
(g73
g59
NtRp191
(dp192
g62
(dp193
sg71
g67
sg64
(lp194
g57
(g78
g59
NtRp195
(dp196
g62
(dp197
g82
g83
ssg71
g191
sg64
(lp198
S'controller'
p199
asbag57
(g78
g59
NtRp200
(dp201
g62
(dp202
g89
g90
ssg71
g191
sg64
(lp203
S':'
asbag57
(g78
g59
NtRp204
(dp205
g62
(dp206
sg71
g191
sg64
(lp207
g57
(g58
g59
NtRp208
(dp209
g62
(dp210
g70
I5
ssg71
g204
sg64
(lp211
S'default'
p212
asbasbasbag57
(g73
g59
NtRp213
(dp214
g62
(dp215
sg71
g67
sg64
(lp216
g57
(g78
g59
NtRp217
(dp218
g62
(dp219
g82
g83
ssg71
g213
sg64
(lp220
S'cookies'
p221
asbag57
(g78
g59
NtRp222
(dp223
g62
(dp224
g89
g90
ssg71
g213
sg64
(lp225
S':'
asbag57
(g78
g59
NtRp226
(dp227
g62
(dp228
sg71
g213
sg64
(lp229
g57
(g58
g59
NtRp230
(dp231
g62
(dp232
g70
I5
ssg71
g226
sg64
(lp233
g57
(g66
g59
NtRp234
(dp235
g62
(dp236
g70
I4
ssg71
Nsg64
(lp237
g57
(g73
g59
NtRp238
(dp239
g62
(dp240
sg71
g234
sg64
(lp241
g57
(g78
g59
NtRp242
(dp243
g62
(dp244
g82
g83
ssg71
g238
sg64
(lp245
S'session_id_admin'
p246
asbag57
(g78
g59
NtRp247
(dp248
g62
(dp249
g89
g90
ssg71
g238
sg64
(lp250
S':'
asbag57
(g78
g59
NtRp251
(dp252
g62
(dp253
sg71
g238
sg64
(lp254
g57
(g58
g59
NtRp255
(dp256
g62
(dp257
g70
I4
ssg71
g251
sg64
(lp258
g57
(g66
g59
NtRp259
(dp260
g62
(dp261
g70
I3
ssg71
Nsg64
(lp262
g57
(g73
g59
NtRp263
(dp264
g62
(dp265
sg71
g259
sg64
(lp266
g57
(g78
g59
NtRp267
(dp268
g62
(dp269
g82
g83
ssg71
g263
sg64
(lp270
S'comment'
p271
asbag57
(g78
g59
NtRp272
(dp273
g62
(dp274
g89
g90
ssg71
g263
sg64
(lp275
S':'
asbag57
(g78
g59
NtRp276
(dp277
g62
(dp278
sg71
g263
sg64
(lp279
g57
(g58
g59
NtRp280
(dp281
g62
(dp282
g70
I3
ssg71
g276
sg64
(lp283
S''
asbasbasbag57
(g73
g59
NtRp284
(dp285
g62
(dp286
sg71
g259
sg64
(lp287
g57
(g78
g59
NtRp288
(dp289
g62
(dp290
g82
g83
ssg71
g284
sg64
(lp291
S'domain'
p292
asbag57
(g78
g59
NtRp293
(dp294
g62
(dp295
g89
g90
ssg71
g284
sg64
(lp296
S':'
asbag57
(g78
g59
NtRp297
(dp298
g62
(dp299
sg71
g284
sg64
(lp300
g57
(g58
g59
NtRp301
(dp302
g62
(dp303
g70
I3
ssg71
g297
sg64
(lp304
S''
asbasbasbag57
(g73
g59
NtRp305
(dp306
g62
(dp307
sg71
g259
sg64
(lp308
g57
(g78
g59
NtRp309
(dp310
g62
(dp311
g82
g83
ssg71
g305
sg64
(lp312
S'expires'
p313
asbag57
(g78
g59
NtRp314
(dp315
g62
(dp316
g89
g90
ssg71
g305
sg64
(lp317
S':'
asbag57
(g78
g59
NtRp318
(dp319
g62
(dp320
sg71
g305
sg64
(lp321
g57
(g58
g59
NtRp322
(dp323
g62
(dp324
g70
I3
ssg71
g318
sg64
(lp325
S''
asbasbasbag57
(g73
g59
NtRp326
(dp327
g62
(dp328
sg71
g259
sg64
(lp329
g57
(g78
g59
NtRp330
(dp331
g62
(dp332
g82
g83
ssg71
g326
sg64
(lp333
S'httponly'
p334
asbag57
(g78
g59
NtRp335
(dp336
g62
(dp337
g89
g90
ssg71
g326
sg64
(lp338
S':'
asbag57
(g78
g59
NtRp339
(dp340
g62
(dp341
sg71
g326
sg64
(lp342
g57
(g58
g59
NtRp343
(dp344
g62
(dp345
g70
I3
ssg71
g339
sg64
(lp346
S''
asbasbasbag57
(g73
g59
NtRp347
(dp348
g62
(dp349
sg71
g259
sg64
(lp350
g57
(g78
g59
NtRp351
(dp352
g62
(dp353
g82
g83
ssg71
g347
sg64
(lp354
S'max-age'
p355
asbag57
(g78
g59
NtRp356
(dp357
g62
(dp358
g89
g90
ssg71
g347
sg64
(lp359
S':'
asbag57
(g78
g59
NtRp360
(dp361
g62
(dp362
sg71
g347
sg64
(lp363
g57
(g58
g59
NtRp364
(dp365
g62
(dp366
g70
I3
ssg71
g360
sg64
(lp367
S''
asbasbasbag57
(g73
g59
NtRp368
(dp369
g62
(dp370
sg71
g259
sg64
(lp371
g57
(g78
g59
NtRp372
(dp373
g62
(dp374
g82
g83
ssg71
g368
sg64
(lp375
S'path'
p376
asbag57
(g78
g59
NtRp377
(dp378
g62
(dp379
g89
g90
ssg71
g368
sg64
(lp380
S':'
asbag57
(g78
g59
NtRp381
(dp382
g62
(dp383
sg71
g368
sg64
(lp384
g57
(g58
g59
NtRp385
(dp386
g62
(dp387
g70
I3
ssg71
g381
sg64
(lp388
S''
asbasbasbag57
(g73
g59
NtRp389
(dp390
g62
(dp391
sg71
g259
sg64
(lp392
g57
(g78
g59
NtRp393
(dp394
g62
(dp395
g82
g83
ssg71
g389
sg64
(lp396
S'secure'
p397
asbag57
(g78
g59
NtRp398
(dp399
g62
(dp400
g89
g90
ssg71
g389
sg64
(lp401
S':'
asbag57
(g78
g59
NtRp402
(dp403
g62
(dp404
sg71
g389
sg64
(lp405
g57
(g58
g59
NtRp406
(dp407
g62
(dp408
g70
I3
ssg71
g402
sg64
(lp409
S''
asbasbasbag57
(g73
g59
NtRp410
(dp411
g62
(dp412
sg71
g259
sg64
(lp413
g57
(g78
g59
NtRp414
(dp415
g62
(dp416
g82
g83
ssg71
g410
sg64
(lp417
S'version'
p418
asbag57
(g78
g59
NtRp419
(dp420
g62
(dp421
g89
g90
ssg71
g410
sg64
(lp422
S':'
asbag57
(g78
g59
NtRp423
(dp424
g62
(dp425
sg71
g410
sg64
(lp426
g57
(g58
g59
NtRp427
(dp428
g62
(dp429
g70
I3
ssg71
g423
sg64
(lp430
S''
asbasbasbasbasbasbasbag57
(g73
g59
NtRp431
(dp432
g62
(dp433
sg71
g234
sg64
(lp434
g57
(g78
g59
NtRp435
(dp436
g62
(dp437
g82
g83
ssg71
g431
sg64
(lp438
S'session_id_contador'
p439
asbag57
(g78
g59
NtRp440
(dp441
g62
(dp442
g89
g90
ssg71
g431
sg64
(lp443
S':'
asbag57
(g78
g59
NtRp444
(dp445
g62
(dp446
sg71
g431
sg64
(lp447
g57
(g58
g59
NtRp448
(dp449
g62
(dp450
g70
I4
ssg71
g444
sg64
(lp451
g57
(g66
g59
NtRp452
(dp453
g62
(dp454
g70
I3
ssg71
Nsg64
(lp455
g57
(g73
g59
NtRp456
(dp457
g62
(dp458
sg71
g452
sg64
(lp459
g57
(g78
g59
NtRp460
(dp461
g62
(dp462
g82
g83
ssg71
g456
sg64
(lp463
g271
asbag57
(g78
g59
NtRp464
(dp465
g62
(dp466
g89
g90
ssg71
g456
sg64
(lp467
S':'
asbag57
(g78
g59
NtRp468
(dp469
g62
(dp470
sg71
g456
sg64
(lp471
g57
(g58
g59
NtRp472
(dp473
g62
(dp474
g70
I3
ssg71
g468
sg64
(lp475
S''
asbasbasbag57
(g73
g59
NtRp476
(dp477
g62
(dp478
sg71
g452
sg64
(lp479
g57
(g78
g59
NtRp480
(dp481
g62
(dp482
g82
g83
ssg71
g476
sg64
(lp483
g292
asbag57
(g78
g59
NtRp484
(dp485
g62
(dp486
g89
g90
ssg71
g476
sg64
(lp487
S':'
asbag57
(g78
g59
NtRp488
(dp489
g62
(dp490
sg71
g476
sg64
(lp491
g57
(g58
g59
NtRp492
(dp493
g62
(dp494
g70
I3
ssg71
g488
sg64
(lp495
S''
asbasbasbag57
(g73
g59
NtRp496
(dp497
g62
(dp498
sg71
g452
sg64
(lp499
g57
(g78
g59
NtRp500
(dp501
g62
(dp502
g82
g83
ssg71
g496
sg64
(lp503
g313
asbag57
(g78
g59
NtRp504
(dp505
g62
(dp506
g89
g90
ssg71
g496
sg64
(lp507
S':'
asbag57
(g78
g59
NtRp508
(dp509
g62
(dp510
sg71
g496
sg64
(lp511
g57
(g58
g59
NtRp512
(dp513
g62
(dp514
g70
I3
ssg71
g508
sg64
(lp515
S''
asbasbasbag57
(g73
g59
NtRp516
(dp517
g62
(dp518
sg71
g452
sg64
(lp519
g57
(g78
g59
NtRp520
(dp521
g62
(dp522
g82
g83
ssg71
g516
sg64
(lp523
g334
asbag57
(g78
g59
NtRp524
(dp525
g62
(dp526
g89
g90
ssg71
g516
sg64
(lp527
S':'
asbag57
(g78
g59
NtRp528
(dp529
g62
(dp530
sg71
g516
sg64
(lp531
g57
(g58
g59
NtRp532
(dp533
g62
(dp534
g70
I3
ssg71
g528
sg64
(lp535
S''
asbasbasbag57
(g73
g59
NtRp536
(dp537
g62
(dp538
sg71
g452
sg64
(lp539
g57
(g78
g59
NtRp540
(dp541
g62
(dp542
g82
g83
ssg71
g536
sg64
(lp543
g355
asbag57
(g78
g59
NtRp544
(dp545
g62
(dp546
g89
g90
ssg71
g536
sg64
(lp547
S':'
asbag57
(g78
g59
NtRp548
(dp549
g62
(dp550
sg71
g536
sg64
(lp551
g57
(g58
g59
NtRp552
(dp553
g62
(dp554
g70
I3
ssg71
g548
sg64
(lp555
S''
asbasbasbag57
(g73
g59
NtRp556
(dp557
g62
(dp558
sg71
g452
sg64
(lp559
g57
(g78
g59
NtRp560
(dp561
g62
(dp562
g82
g83
ssg71
g556
sg64
(lp563
g376
asbag57
(g78
g59
NtRp564
(dp565
g62
(dp566
g89
g90
ssg71
g556
sg64
(lp567
S':'
asbag57
(g78
g59
NtRp568
(dp569
g62
(dp570
sg71
g556
sg64
(lp571
g57
(g58
g59
NtRp572
(dp573
g62
(dp574
g70
I3
ssg71
g568
sg64
(lp575
S''
asbasbasbag57
(g73
g59
NtRp576
(dp577
g62
(dp578
sg71
g452
sg64
(lp579
g57
(g78
g59
NtRp580
(dp581
g62
(dp582
g82
g83
ssg71
g576
sg64
(lp583
g397
asbag57
(g78
g59
NtRp584
(dp585
g62
(dp586
g89
g90
ssg71
g576
sg64
(lp587
S':'
asbag57
(g78
g59
NtRp588
(dp589
g62
(dp590
sg71
g576
sg64
(lp591
g57
(g58
g59
NtRp592
(dp593
g62
(dp594
g70
I3
ssg71
g588
sg64
(lp595
S''
asbasbasbag57
(g73
g59
NtRp596
(dp597
g62
(dp598
sg71
g452
sg64
(lp599
g57
(g78
g59
NtRp600
(dp601
g62
(dp602
g82
g83
ssg71
g596
sg64
(lp603
g418
asbag57
(g78
g59
NtRp604
(dp605
g62
(dp606
g89
g90
ssg71
g596
sg64
(lp607
S':'
asbag57
(g78
g59
NtRp608
(dp609
g62
(dp610
sg71
g596
sg64
(lp611
g57
(g58
g59
NtRp612
(dp613
g62
(dp614
g70
I3
ssg71
g608
sg64
(lp615
S''
asbasbasbasbasbasbasbag57
(g73
g59
NtRp616
(dp617
g62
(dp618
sg71
g234
sg64
(lp619
g57
(g78
g59
NtRp620
(dp621
g62
(dp622
g82
g83
ssg71
g616
sg64
(lp623
S'session_id_randomwords'
p624
asbag57
(g78
g59
NtRp625
(dp626
g62
(dp627
g89
g90
ssg71
g616
sg64
(lp628
S':'
asbag57
(g78
g59
NtRp629
(dp630
g62
(dp631
sg71
g616
sg64
(lp632
g57
(g58
g59
NtRp633
(dp634
g62
(dp635
g70
I4
ssg71
g629
sg64
(lp636
g57
(g66
g59
NtRp637
(dp638
g62
(dp639
g70
I3
ssg71
Nsg64
(lp640
g57
(g73
g59
NtRp641
(dp642
g62
(dp643
sg71
g637
sg64
(lp644
g57
(g78
g59
NtRp645
(dp646
g62
(dp647
g82
g83
ssg71
g641
sg64
(lp648
g271
asbag57
(g78
g59
NtRp649
(dp650
g62
(dp651
g89
g90
ssg71
g641
sg64
(lp652
S':'
asbag57
(g78
g59
NtRp653
(dp654
g62
(dp655
sg71
g641
sg64
(lp656
g57
(g58
g59
NtRp657
(dp658
g62
(dp659
g70
I3
ssg71
g653
sg64
(lp660
S''
asbasbasbag57
(g73
g59
NtRp661
(dp662
g62
(dp663
sg71
g637
sg64
(lp664
g57
(g78
g59
NtRp665
(dp666
g62
(dp667
g82
g83
ssg71
g661
sg64
(lp668
g292
asbag57
(g78
g59
NtRp669
(dp670
g62
(dp671
g89
g90
ssg71
g661
sg64
(lp672
S':'
asbag57
(g78
g59
NtRp673
(dp674
g62
(dp675
sg71
g661
sg64
(lp676
g57
(g58
g59
NtRp677
(dp678
g62
(dp679
g70
I3
ssg71
g673
sg64
(lp680
S''
asbasbasbag57
(g73
g59
NtRp681
(dp682
g62
(dp683
sg71
g637
sg64
(lp684
g57
(g78
g59
NtRp685
(dp686
g62
(dp687
g82
g83
ssg71
g681
sg64
(lp688
g313
asbag57
(g78
g59
NtRp689
(dp690
g62
(dp691
g89
g90
ssg71
g681
sg64
(lp692
S':'
asbag57
(g78
g59
NtRp693
(dp694
g62
(dp695
sg71
g681
sg64
(lp696
g57
(g58
g59
NtRp697
(dp698
g62
(dp699
g70
I3
ssg71
g693
sg64
(lp700
S''
asbasbasbag57
(g73
g59
NtRp701
(dp702
g62
(dp703
sg71
g637
sg64
(lp704
g57
(g78
g59
NtRp705
(dp706
g62
(dp707
g82
g83
ssg71
g701
sg64
(lp708
g334
asbag57
(g78
g59
NtRp709
(dp710
g62
(dp711
g89
g90
ssg71
g701
sg64
(lp712
S':'
asbag57
(g78
g59
NtRp713
(dp714
g62
(dp715
sg71
g701
sg64
(lp716
g57
(g58
g59
NtRp717
(dp718
g62
(dp719
g70
I3
ssg71
g713
sg64
(lp720
S''
asbasbasbag57
(g73
g59
NtRp721
(dp722
g62
(dp723
sg71
g637
sg64
(lp724
g57
(g78
g59
NtRp725
(dp726
g62
(dp727
g82
g83
ssg71
g721
sg64
(lp728
g355
asbag57
(g78
g59
NtRp729
(dp730
g62
(dp731
g89
g90
ssg71
g721
sg64
(lp732
S':'
asbag57
(g78
g59
NtRp733
(dp734
g62
(dp735
sg71
g721
sg64
(lp736
g57
(g58
g59
NtRp737
(dp738
g62
(dp739
g70
I3
ssg71
g733
sg64
(lp740
S''
asbasbasbag57
(g73
g59
NtRp741
(dp742
g62
(dp743
sg71
g637
sg64
(lp744
g57
(g78
g59
NtRp745
(dp746
g62
(dp747
g82
g83
ssg71
g741
sg64
(lp748
g376
asbag57
(g78
g59
NtRp749
(dp750
g62
(dp751
g89
g90
ssg71
g741
sg64
(lp752
S':'
asbag57
(g78
g59
NtRp753
(dp754
g62
(dp755
sg71
g741
sg64
(lp756
g57
(g58
g59
NtRp757
(dp758
g62
(dp759
g70
I3
ssg71
g753
sg64
(lp760
S''
asbasbasbag57
(g73
g59
NtRp761
(dp762
g62
(dp763
sg71
g637
sg64
(lp764
g57
(g78
g59
NtRp765
(dp766
g62
(dp767
g82
g83
ssg71
g761
sg64
(lp768
g397
asbag57
(g78
g59
NtRp769
(dp770
g62
(dp771
g89
g90
ssg71
g761
sg64
(lp772
S':'
asbag57
(g78
g59
NtRp773
(dp774
g62
(dp775
sg71
g761
sg64
(lp776
g57
(g58
g59
NtRp777
(dp778
g62
(dp779
g70
I3
ssg71
g773
sg64
(lp780
S''
asbasbasbag57
(g73
g59
NtRp781
(dp782
g62
(dp783
sg71
g637
sg64
(lp784
g57
(g78
g59
NtRp785
(dp786
g62
(dp787
g82
g83
ssg71
g781
sg64
(lp788
g418
asbag57
(g78
g59
NtRp789
(dp790
g62
(dp791
g89
g90
ssg71
g781
sg64
(lp792
S':'
asbag57
(g78
g59
NtRp793
(dp794
g62
(dp795
sg71
g781
sg64
(lp796
g57
(g58
g59
NtRp797
(dp798
g62
(dp799
g70
I3
ssg71
g793
sg64
(lp800
S''
asbasbasbasbasbasbasbag57
(g73
g59
NtRp801
(dp802
g62
(dp803
sg71
g234
sg64
(lp804
g57
(g78
g59
NtRp805
(dp806
g62
(dp807
g82
g83
ssg71
g801
sg64
(lp808
S'session_id_welcome'
p809
asbag57
(g78
g59
NtRp810
(dp811
g62
(dp812
g89
g90
ssg71
g801
sg64
(lp813
S':'
asbag57
(g78
g59
NtRp814
(dp815
g62
(dp816
sg71
g801
sg64
(lp817
g57
(g58
g59
NtRp818
(dp819
g62
(dp820
g70
I4
ssg71
g814
sg64
(lp821
g57
(g66
g59
NtRp822
(dp823
g62
(dp824
g70
I3
ssg71
Nsg64
(lp825
g57
(g73
g59
NtRp826
(dp827
g62
(dp828
sg71
g822
sg64
(lp829
g57
(g78
g59
NtRp830
(dp831
g62
(dp832
g82
g83
ssg71
g826
sg64
(lp833
g271
asbag57
(g78
g59
NtRp834
(dp835
g62
(dp836
g89
g90
ssg71
g826
sg64
(lp837
S':'
asbag57
(g78
g59
NtRp838
(dp839
g62
(dp840
sg71
g826
sg64
(lp841
g57
(g58
g59
NtRp842
(dp843
g62
(dp844
g70
I3
ssg71
g838
sg64
(lp845
S''
asbasbasbag57
(g73
g59
NtRp846
(dp847
g62
(dp848
sg71
g822
sg64
(lp849
g57
(g78
g59
NtRp850
(dp851
g62
(dp852
g82
g83
ssg71
g846
sg64
(lp853
g292
asbag57
(g78
g59
NtRp854
(dp855
g62
(dp856
g89
g90
ssg71
g846
sg64
(lp857
S':'
asbag57
(g78
g59
NtRp858
(dp859
g62
(dp860
sg71
g846
sg64
(lp861
g57
(g58
g59
NtRp862
(dp863
g62
(dp864
g70
I3
ssg71
g858
sg64
(lp865
S''
asbasbasbag57
(g73
g59
NtRp866
(dp867
g62
(dp868
sg71
g822
sg64
(lp869
g57
(g78
g59
NtRp870
(dp871
g62
(dp872
g82
g83
ssg71
g866
sg64
(lp873
g313
asbag57
(g78
g59
NtRp874
(dp875
g62
(dp876
g89
g90
ssg71
g866
sg64
(lp877
S':'
asbag57
(g78
g59
NtRp878
(dp879
g62
(dp880
sg71
g866
sg64
(lp881
g57
(g58
g59
NtRp882
(dp883
g62
(dp884
g70
I3
ssg71
g878
sg64
(lp885
S''
asbasbasbag57
(g73
g59
NtRp886
(dp887
g62
(dp888
sg71
g822
sg64
(lp889
g57
(g78
g59
NtRp890
(dp891
g62
(dp892
g82
g83
ssg71
g886
sg64
(lp893
g334
asbag57
(g78
g59
NtRp894
(dp895
g62
(dp896
g89
g90
ssg71
g886
sg64
(lp897
S':'
asbag57
(g78
g59
NtRp898
(dp899
g62
(dp900
sg71
g886
sg64
(lp901
g57
(g58
g59
NtRp902
(dp903
g62
(dp904
g70
I3
ssg71
g898
sg64
(lp905
S''
asbasbasbag57
(g73
g59
NtRp906
(dp907
g62
(dp908
sg71
g822
sg64
(lp909
g57
(g78
g59
NtRp910
(dp911
g62
(dp912
g82
g83
ssg71
g906
sg64
(lp913
g355
asbag57
(g78
g59
NtRp914
(dp915
g62
(dp916
g89
g90
ssg71
g906
sg64
(lp917
S':'
asbag57
(g78
g59
NtRp918
(dp919
g62
(dp920
sg71
g906
sg64
(lp921
g57
(g58
g59
NtRp922
(dp923
g62
(dp924
g70
I3
ssg71
g918
sg64
(lp925
S''
asbasbasbag57
(g73
g59
NtRp926
(dp927
g62
(dp928
sg71
g822
sg64
(lp929
g57
(g78
g59
NtRp930
(dp931
g62
(dp932
g82
g83
ssg71
g926
sg64
(lp933
g376
asbag57
(g78
g59
NtRp934
(dp935
g62
(dp936
g89
g90
ssg71
g926
sg64
(lp937
S':'
asbag57
(g78
g59
NtRp938
(dp939
g62
(dp940
sg71
g926
sg64
(lp941
g57
(g58
g59
NtRp942
(dp943
g62
(dp944
g70
I3
ssg71
g938
sg64
(lp945
S''
asbasbasbag57
(g73
g59
NtRp946
(dp947
g62
(dp948
sg71
g822
sg64
(lp949
g57
(g78
g59
NtRp950
(dp951
g62
(dp952
g82
g83
ssg71
g946
sg64
(lp953
g397
asbag57
(g78
g59
NtRp954
(dp955
g62
(dp956
g89
g90
ssg71
g946
sg64
(lp957
S':'
asbag57
(g78
g59
NtRp958
(dp959
g62
(dp960
sg71
g946
sg64
(lp961
g57
(g58
g59
NtRp962
(dp963
g62
(dp964
g70
I3
ssg71
g958
sg64
(lp965
S''
asbasbasbag57
(g73
g59
NtRp966
(dp967
g62
(dp968
sg71
g822
sg64
(lp969
g57
(g78
g59
NtRp970
(dp971
g62
(dp972
g82
g83
ssg71
g966
sg64
(lp973
g418
asbag57
(g78
g59
NtRp974
(dp975
g62
(dp976
g89
g90
ssg71
g966
sg64
(lp977
S':'
asbag57
(g78
g59
NtRp978
(dp979
g62
(dp980
sg71
g966
sg64
(lp981
g57
(g58
g59
NtRp982
(dp983
g62
(dp984
g70
I3
ssg71
g978
sg64
(lp985
S''
asbasbasbasbasbasbasbasbasbasbasbag57
(g73
g59
NtRp986
(dp987
g62
(dp988
sg71
g67
sg64
(lp989
g57
(g78
g59
NtRp990
(dp991
g62
(dp992
g82
g83
ssg71
g986
sg64
(lp993
S'env'
p994
asbag57
(g78
g59
NtRp995
(dp996
g62
(dp997
g89
g90
ssg71
g986
sg64
(lp998
S':'
asbag57
(g78
g59
NtRp999
(dp1000
g62
(dp1001
sg71
g986
sg64
(lp1002
g57
(g58
g59
NtRp1003
(dp1004
g62
(dp1005
g70
I5
ssg71
g999
sg64
(lp1006
g57
(g66
g59
NtRp1007
(dp1008
g62
(dp1009
g70
I4
ssg71
Nsg64
(lp1010
g57
(g73
g59
NtRp1011
(dp1012
g62
(dp1013
sg71
g1007
sg64
(lp1014
g57
(g78
g59
NtRp1015
(dp1016
g62
(dp1017
g82
g83
ssg71
g1011
sg64
(lp1018
S'app_folders'
p1019
asbag57
(g78
g59
NtRp1020
(dp1021
g62
(dp1022
g89
g90
ssg71
g1011
sg64
(lp1023
S':'
asbag57
(g78
g59
NtRp1024
(dp1025
g62
(dp1026
sg71
g1011
sg64
(lp1027
g57
(g58
g59
NtRp1028
(dp1029
g62
(dp1030
g70
I4
ssg71
g1024
sg64
(lp1031
S"set(['/Users/emir/Documents/beardcode/web2py/applications/contador/'])"
p1032
asbasbasbag57
(g73
g59
NtRp1033
(dp1034
g62
(dp1035
sg71
g1007
sg64
(lp1036
g57
(g78
g59
NtRp1037
(dp1038
g62
(dp1039
g82
g83
ssg71
g1033
sg64
(lp1040
S'applications_parent'
p1041
asbag57
(g78
g59
NtRp1042
(dp1043
g62
(dp1044
g89
g90
ssg71
g1033
sg64
(lp1045
S':'
asbag57
(g78
g59
NtRp1046
(dp1047
g62
(dp1048
sg71
g1033
sg64
(lp1049
g57
(g58
g59
NtRp1050
(dp1051
g62
(dp1052
g70
I4
ssg71
g1046
sg64
(lp1053
S'/Users/emir/Documents/beardcode/web2py'
p1054
asbasbasbag57
(g73
g59
NtRp1055
(dp1056
g62
(dp1057
sg71
g1007
sg64
(lp1058
g57
(g78
g59
NtRp1059
(dp1060
g62
(dp1061
g82
g83
ssg71
g1055
sg64
(lp1062
S'db_sessions'
p1063
asbag57
(g78
g59
NtRp1064
(dp1065
g62
(dp1066
g89
g90
ssg71
g1055
sg64
(lp1067
S':'
asbag57
(g78
g59
NtRp1068
(dp1069
g62
(dp1070
sg71
g1055
sg64
(lp1071
g57
(g58
g59
NtRp1072
(dp1073
g62
(dp1074
g70
I4
ssg71
g1068
sg64
(lp1075
S'set([])'
p1076
asbasbasbag57
(g73
g59
NtRp1077
(dp1078
g62
(dp1079
sg71
g1007
sg64
(lp1080
g57
(g78
g59
NtRp1081
(dp1082
g62
(dp1083
g82
g83
ssg71
g1077
sg64
(lp1084
S'debugging'
p1085
asbag57
(g78
g59
NtRp1086
(dp1087
g62
(dp1088
g89
g90
ssg71
g1077
sg64
(lp1089
S':'
asbag57
(g78
g59
NtRp1090
(dp1091
g62
(dp1092
sg71
g1077
sg64
(lp1093
g57
(g58
g59
NtRp1094
(dp1095
g62
(dp1096
g70
I4
ssg71
g1090
sg64
(lp1097
g100
asbasbasbag57
(g73
g59
NtRp1098
(dp1099
g62
(dp1100
sg71
g1007
sg64
(lp1101
g57
(g78
g59
NtRp1102
(dp1103
g62
(dp1104
g82
g83
ssg71
g1098
sg64
(lp1105
S'document_root'
p1106
asbag57
(g78
g59
NtRp1107
(dp1108
g62
(dp1109
g89
g90
ssg71
g1098
sg64
(lp1110
S':'
asbag57
(g78
g59
NtRp1111
(dp1112
g62
(dp1113
sg71
g1098
sg64
(lp1114
g57
(g58
g59
NtRp1115
(dp1116
g62
(dp1117
g70
I4
ssg71
g1111
sg64
(lp1118
S'/Library/WebServer/Documents'
p1119
asbasbasbag57
(g73
g59
NtRp1120
(dp1121
g62
(dp1122
sg71
g1007
sg64
(lp1123
g57
(g78
g59
NtRp1124
(dp1125
g62
(dp1126
g82
g83
ssg71
g1120
sg64
(lp1127
S'gateway_interface'
p1128
asbag57
(g78
g59
NtRp1129
(dp1130
g62
(dp1131
g89
g90
ssg71
g1120
sg64
(lp1132
S':'
asbag57
(g78
g59
NtRp1133
(dp1134
g62
(dp1135
sg71
g1120
sg64
(lp1136
g57
(g58
g59
NtRp1137
(dp1138
g62
(dp1139
g70
I4
ssg71
g1133
sg64
(lp1140
S'CGI/1.1'
p1141
asbasbasbag57
(g73
g59
NtRp1142
(dp1143
g62
(dp1144
sg71
g1007
sg64
(lp1145
g57
(g78
g59
NtRp1146
(dp1147
g62
(dp1148
g82
g83
ssg71
g1142
sg64
(lp1149
S'gluon_parent'
p1150
asbag57
(g78
g59
NtRp1151
(dp1152
g62
(dp1153
g89
g90
ssg71
g1142
sg64
(lp1154
S':'
asbag57
(g78
g59
NtRp1155
(dp1156
g62
(dp1157
sg71
g1142
sg64
(lp1158
g57
(g58
g59
NtRp1159
(dp1160
g62
(dp1161
g70
I4
ssg71
g1155
sg64
(lp1162
g1054
asbasbasbag57
(g73
g59
NtRp1163
(dp1164
g62
(dp1165
sg71
g1007
sg64
(lp1166
g57
(g78
g59
NtRp1167
(dp1168
g62
(dp1169
g82
g83
ssg71
g1163
sg64
(lp1170
S'http_accept'
p1171
asbag57
(g78
g59
NtRp1172
(dp1173
g62
(dp1174
g89
g90
ssg71
g1163
sg64
(lp1175
S':'
asbag57
(g78
g59
NtRp1176
(dp1177
g62
(dp1178
sg71
g1163
sg64
(lp1179
g57
(g58
g59
NtRp1180
(dp1181
g62
(dp1182
g70
I4
ssg71
g1176
sg64
(lp1183
S'text/html,application/xhtml+xml,application/xml;q=0.9,*/*;q=0.8'
p1184
asbasbasbag57
(g73
g59
NtRp1185
(dp1186
g62
(dp1187
sg71
g1007
sg64
(lp1188
g57
(g78
g59
NtRp1189
(dp1190
g62
(dp1191
g82
g83
ssg71
g1185
sg64
(lp1192
S'http_accept_charset'
p1193
asbag57
(g78
g59
NtRp1194
(dp1195
g62
(dp1196
g89
g90
ssg71
g1185
sg64
(lp1197
S':'
asbag57
(g78
g59
NtRp1198
(dp1199
g62
(dp1200
sg71
g1185
sg64
(lp1201
g57
(g58
g59
NtRp1202
(dp1203
g62
(dp1204
g70
I4
ssg71
g1198
sg64
(lp1205
S'ISO-8859-1,utf-8;q=0.7,*;q=0.3'
p1206
asbasbasbag57
(g73
g59
NtRp1207
(dp1208
g62
(dp1209
sg71
g1007
sg64
(lp1210
g57
(g78
g59
NtRp1211
(dp1212
g62
(dp1213
g82
g83
ssg71
g1207
sg64
(lp1214
S'http_accept_encoding'
p1215
asbag57
(g78
g59
NtRp1216
(dp1217
g62
(dp1218
g89
g90
ssg71
g1207
sg64
(lp1219
S':'
asbag57
(g78
g59
NtRp1220
(dp1221
g62
(dp1222
sg71
g1207
sg64
(lp1223
g57
(g58
g59
NtRp1224
(dp1225
g62
(dp1226
g70
I4
ssg71
g1220
sg64
(lp1227
S'gzip,deflate,sdch'
p1228
asbasbasbag57
(g73
g59
NtRp1229
(dp1230
g62
(dp1231
sg71
g1007
sg64
(lp1232
g57
(g78
g59
NtRp1233
(dp1234
g62
(dp1235
g82
g83
ssg71
g1229
sg64
(lp1236
S'http_accept_language'
p1237
asbag57
(g78
g59
NtRp1238
(dp1239
g62
(dp1240
g89
g90
ssg71
g1229
sg64
(lp1241
S':'
asbag57
(g78
g59
NtRp1242
(dp1243
g62
(dp1244
sg71
g1229
sg64
(lp1245
g57
(g58
g59
NtRp1246
(dp1247
g62
(dp1248
g70
I4
ssg71
g1242
sg64
(lp1249
S'es-ES,es;q=0.8'
p1250
asbasbasbag57
(g73
g59
NtRp1251
(dp1252
g62
(dp1253
sg71
g1007
sg64
(lp1254
g57
(g78
g59
NtRp1255
(dp1256
g62
(dp1257
g82
g83
ssg71
g1251
sg64
(lp1258
S'http_cache_control'
p1259
asbag57
(g78
g59
NtRp1260
(dp1261
g62
(dp1262
g89
g90
ssg71
g1251
sg64
(lp1263
S':'
asbag57
(g78
g59
NtRp1264
(dp1265
g62
(dp1266
sg71
g1251
sg64
(lp1267
g57
(g58
g59
NtRp1268
(dp1269
g62
(dp1270
g70
I4
ssg71
g1264
sg64
(lp1271
S'max-age=0'
p1272
asbasbasbag57
(g73
g59
NtRp1273
(dp1274
g62
(dp1275
sg71
g1007
sg64
(lp1276
g57
(g78
g59
NtRp1277
(dp1278
g62
(dp1279
g82
g83
ssg71
g1273
sg64
(lp1280
S'http_connection'
p1281
asbag57
(g78
g59
NtRp1282
(dp1283
g62
(dp1284
g89
g90
ssg71
g1273
sg64
(lp1285
S':'
asbag57
(g78
g59
NtRp1286
(dp1287
g62
(dp1288
sg71
g1273
sg64
(lp1289
g57
(g58
g59
NtRp1290
(dp1291
g62
(dp1292
g70
I4
ssg71
g1286
sg64
(lp1293
S'keep-alive'
p1294
asbasbasbag57
(g73
g59
NtRp1295
(dp1296
g62
(dp1297
sg71
g1007
sg64
(lp1298
g57
(g78
g59
NtRp1299
(dp1300
g62
(dp1301
g82
g83
ssg71
g1295
sg64
(lp1302
S'http_cookie'
p1303
asbag57
(g78
g59
NtRp1304
(dp1305
g62
(dp1306
g89
g90
ssg71
g1295
sg64
(lp1307
S':'
asbag57
(g78
g59
NtRp1308
(dp1309
g62
(dp1310
sg71
g1295
sg64
(lp1311
g57
(g58
g59
NtRp1312
(dp1313
g62
(dp1314
g70
I4
ssg71
g1308
sg64
(lp1315
S'session_id_randomwords=127.0.0.1-1fe5eb3c-05ae-47c4-864c-4c9f43ac620c; session_id_welcome=127.0.0.1-26ca6cd3-84d7-4753-ad50-3b7ae1bcfc78; session_id_admin=127.0.0.1-eb1bfc92-b1d7-40f5-bac2-0727bba915fa; session_id_contador=127.0.0.1-2b69a554-5d73-450d-a1a3-2f7111772fbb'
p1316
asbasbasbag57
(g73
g59
NtRp1317
(dp1318
g62
(dp1319
sg71
g1007
sg64
(lp1320
g57
(g78
g59
NtRp1321
(dp1322
g62
(dp1323
g82
g83
ssg71
g1317
sg64
(lp1324
S'http_host'
p1325
asbag57
(g78
g59
NtRp1326
(dp1327
g62
(dp1328
g89
g90
ssg71
g1317
sg64
(lp1329
S':'
asbag57
(g78
g59
NtRp1330
(dp1331
g62
(dp1332
sg71
g1317
sg64
(lp1333
g57
(g58
g59
NtRp1334
(dp1335
g62
(dp1336
g70
I4
ssg71
g1330
sg64
(lp1337
S'web2py'
p1338
asbasbasbag57
(g73
g59
NtRp1339
(dp1340
g62
(dp1341
sg71
g1007
sg64
(lp1342
g57
(g78
g59
NtRp1343
(dp1344
g62
(dp1345
g82
g83
ssg71
g1339
sg64
(lp1346
S'http_user_agent'
p1347
asbag57
(g78
g59
NtRp1348
(dp1349
g62
(dp1350
g89
g90
ssg71
g1339
sg64
(lp1351
S':'
asbag57
(g78
g59
NtRp1352
(dp1353
g62
(dp1354
sg71
g1339
sg64
(lp1355
g57
(g58
g59
NtRp1356
(dp1357
g62
(dp1358
g70
I4
ssg71
g1352
sg64
(lp1359
S'Mozilla/5.0 (Macintosh; Intel Mac OS X 10_8_0) AppleWebKit/537.1 (KHTML, like Gecko) Chrome/21.0.1180.57 Safari/537.1'
p1360
asbasbasbag57
(g73
g59
NtRp1361
(dp1362
g62
(dp1363
sg71
g1007
sg64
(lp1364
g57
(g78
g59
NtRp1365
(dp1366
g62
(dp1367
g82
g83
ssg71
g1361
sg64
(lp1368
S'is_jython'
p1369
asbag57
(g78
g59
NtRp1370
(dp1371
g62
(dp1372
g89
g90
ssg71
g1361
sg64
(lp1373
S':'
asbag57
(g78
g59
NtRp1374
(dp1375
g62
(dp1376
sg71
g1361
sg64
(lp1377
g57
(g58
g59
NtRp1378
(dp1379
g62
(dp1380
g70
I4
ssg71
g1374
sg64
(lp1381
g100
asbasbasbag57
(g73
g59
NtRp1382
(dp1383
g62
(dp1384
sg71
g1007
sg64
(lp1385
g57
(g78
g59
NtRp1386
(dp1387
g62
(dp1388
g82
g83
ssg71
g1382
sg64
(lp1389
S'is_pypy'
p1390
asbag57
(g78
g59
NtRp1391
(dp1392
g62
(dp1393
g89
g90
ssg71
g1382
sg64
(lp1394
S':'
asbag57
(g78
g59
NtRp1395
(dp1396
g62
(dp1397
sg71
g1382
sg64
(lp1398
g57
(g58
g59
NtRp1399
(dp1400
g62
(dp1401
g70
I4
ssg71
g1395
sg64
(lp1402
g100
asbasbasbag57
(g73
g59
NtRp1403
(dp1404
g62
(dp1405
sg71
g1007
sg64
(lp1406
g57
(g78
g59
NtRp1407
(dp1408
g62
(dp1409
g82
g83
ssg71
g1403
sg64
(lp1410
S'mod_wsgi_application_group'
p1411
asbag57
(g78
g59
NtRp1412
(dp1413
g62
(dp1414
g89
g90
ssg71
g1403
sg64
(lp1415
S':'
asbag57
(g78
g59
NtRp1416
(dp1417
g62
(dp1418
sg71
g1403
sg64
(lp1419
g57
(g58
g59
NtRp1420
(dp1421
g62
(dp1422
g70
I4
ssg71
g1416
sg64
(lp1423
S'web2py|'
p1424
asbasbasbag57
(g73
g59
NtRp1425
(dp1426
g62
(dp1427
sg71
g1007
sg64
(lp1428
g57
(g78
g59
NtRp1429
(dp1430
g62
(dp1431
g82
g83
ssg71
g1425
sg64
(lp1432
S'mod_wsgi_callable_object'
p1433
asbag57
(g78
g59
NtRp1434
(dp1435
g62
(dp1436
g89
g90
ssg71
g1425
sg64
(lp1437
S':'
asbag57
(g78
g59
NtRp1438
(dp1439
g62
(dp1440
sg71
g1425
sg64
(lp1441
g57
(g58
g59
NtRp1442
(dp1443
g62
(dp1444
g70
I4
ssg71
g1438
sg64
(lp1445
S'application'
p1446
asbasbasbag57
(g73
g59
NtRp1447
(dp1448
g62
(dp1449
sg71
g1007
sg64
(lp1450
g57
(g78
g59
NtRp1451
(dp1452
g62
(dp1453
g82
g83
ssg71
g1447
sg64
(lp1454
S'mod_wsgi_handler_script'
p1455
asbag57
(g78
g59
NtRp1456
(dp1457
g62
(dp1458
g89
g90
ssg71
g1447
sg64
(lp1459
S':'
asbag57
(g78
g59
NtRp1460
(dp1461
g62
(dp1462
sg71
g1447
sg64
(lp1463
g57
(g58
g59
NtRp1464
(dp1465
g62
(dp1466
g70
I4
ssg71
g1460
sg64
(lp1467
S''
asbasbasbag57
(g73
g59
NtRp1468
(dp1469
g62
(dp1470
sg71
g1007
sg64
(lp1471
g57
(g78
g59
NtRp1472
(dp1473
g62
(dp1474
g82
g83
ssg71
g1468
sg64
(lp1475
S'mod_wsgi_input_chunked'
p1476
asbag57
(g78
g59
NtRp1477
(dp1478
g62
(dp1479
g89
g90
ssg71
g1468
sg64
(lp1480
S':'
asbag57
(g78
g59
NtRp1481
(dp1482
g62
(dp1483
sg71
g1468
sg64
(lp1484
g57
(g58
g59
NtRp1485
(dp1486
g62
(dp1487
g70
I4
ssg71
g1481
sg64
(lp1488
S'0'
asbasbasbag57
(g73
g59
NtRp1489
(dp1490
g62
(dp1491
sg71
g1007
sg64
(lp1492
g57
(g78
g59
NtRp1493
(dp1494
g62
(dp1495
g82
g83
ssg71
g1489
sg64
(lp1496
S'mod_wsgi_listener_host'
p1497
asbag57
(g78
g59
NtRp1498
(dp1499
g62
(dp1500
g89
g90
ssg71
g1489
sg64
(lp1501
S':'
asbag57
(g78
g59
NtRp1502
(dp1503
g62
(dp1504
sg71
g1489
sg64
(lp1505
g57
(g58
g59
NtRp1506
(dp1507
g62
(dp1508
g70
I4
ssg71
g1502
sg64
(lp1509
S''
asbasbasbag57
(g73
g59
NtRp1510
(dp1511
g62
(dp1512
sg71
g1007
sg64
(lp1513
g57
(g78
g59
NtRp1514
(dp1515
g62
(dp1516
g82
g83
ssg71
g1510
sg64
(lp1517
S'mod_wsgi_listener_port'
p1518
asbag57
(g78
g59
NtRp1519
(dp1520
g62
(dp1521
g89
g90
ssg71
g1510
sg64
(lp1522
S':'
asbag57
(g78
g59
NtRp1523
(dp1524
g62
(dp1525
sg71
g1510
sg64
(lp1526
g57
(g58
g59
NtRp1527
(dp1528
g62
(dp1529
g70
I4
ssg71
g1523
sg64
(lp1530
S'80'
p1531
asbasbasbag57
(g73
g59
NtRp1532
(dp1533
g62
(dp1534
sg71
g1007
sg64
(lp1535
g57
(g78
g59
NtRp1536
(dp1537
g62
(dp1538
g82
g83
ssg71
g1532
sg64
(lp1539
S'mod_wsgi_process_group'
p1540
asbag57
(g78
g59
NtRp1541
(dp1542
g62
(dp1543
g89
g90
ssg71
g1532
sg64
(lp1544
S':'
asbag57
(g78
g59
NtRp1545
(dp1546
g62
(dp1547
sg71
g1532
sg64
(lp1548
g57
(g58
g59
NtRp1549
(dp1550
g62
(dp1551
g70
I4
ssg71
g1545
sg64
(lp1552
S''
asbasbasbag57
(g73
g59
NtRp1553
(dp1554
g62
(dp1555
sg71
g1007
sg64
(lp1556
g57
(g78
g59
NtRp1557
(dp1558
g62
(dp1559
g82
g83
ssg71
g1553
sg64
(lp1560
S'mod_wsgi_request_handler'
p1561
asbag57
(g78
g59
NtRp1562
(dp1563
g62
(dp1564
g89
g90
ssg71
g1553
sg64
(lp1565
S':'
asbag57
(g78
g59
NtRp1566
(dp1567
g62
(dp1568
sg71
g1553
sg64
(lp1569
g57
(g58
g59
NtRp1570
(dp1571
g62
(dp1572
g70
I4
ssg71
g1566
sg64
(lp1573
S'wsgi-script'
p1574
asbasbasbag57
(g73
g59
NtRp1575
(dp1576
g62
(dp1577
sg71
g1007
sg64
(lp1578
g57
(g78
g59
NtRp1579
(dp1580
g62
(dp1581
g82
g83
ssg71
g1575
sg64
(lp1582
S'mod_wsgi_script_reloading'
p1583
asbag57
(g78
g59
NtRp1584
(dp1585
g62
(dp1586
g89
g90
ssg71
g1575
sg64
(lp1587
S':'
asbag57
(g78
g59
NtRp1588
(dp1589
g62
(dp1590
sg71
g1575
sg64
(lp1591
g57
(g58
g59
NtRp1592
(dp1593
g62
(dp1594
g70
I4
ssg71
g1588
sg64
(lp1595
S'1'
asbasbasbag57
(g73
g59
NtRp1596
(dp1597
g62
(dp1598
sg71
g1007
sg64
(lp1599
g57
(g78
g59
NtRp1600
(dp1601
g62
(dp1602
g82
g83
ssg71
g1596
sg64
(lp1603
S'mod_wsgi_version'
p1604
asbag57
(g78
g59
NtRp1605
(dp1606
g62
(dp1607
g89
g90
ssg71
g1596
sg64
(lp1608
S':'
asbag57
(g78
g59
NtRp1609
(dp1610
g62
(dp1611
sg71
g1596
sg64
(lp1612
g57
(g58
g59
NtRp1613
(dp1614
g62
(dp1615
g70
I4
ssg71
g1609
sg64
(lp1616
g57
(g66
g59
NtRp1617
(dp1618
g62
(dp1619
g70
I3
ssg71
Nsg64
(lp1620
g57
(g73
g59
NtRp1621
(dp1622
g62
(dp1623
sg71
g1617
sg64
(lp1624
g57
(g78
g59
NtRp1625
(dp1626
g62
(dp1627
sg71
g1621
sg64
(lp1628
g57
(g58
g59
NtRp1629
(dp1630
g62
(dp1631
g70
I3
ssg71
g1625
sg64
(lp1632
S'3'
asbasbasbag57
(g73
g59
NtRp1633
(dp1634
g62
(dp1635
sg71
g1617
sg64
(lp1636
g57
(g78
g59
NtRp1637
(dp1638
g62
(dp1639
sg71
g1633
sg64
(lp1640
g57
(g58
g59
NtRp1641
(dp1642
g62
(dp1643
g70
I3
ssg71
g1637
sg64
(lp1644
S'3'
asbasbasbasbasbasbasbag57
(g73
g59
NtRp1645
(dp1646
g62
(dp1647
sg71
g1007
sg64
(lp1648
g57
(g78
g59
NtRp1649
(dp1650
g62
(dp1651
g82
g83
ssg71
g1645
sg64
(lp1652
S'path_info'
p1653
asbag57
(g78
g59
NtRp1654
(dp1655
g62
(dp1656
g89
g90
ssg71
g1645
sg64
(lp1657
S':'
asbag57
(g78
g59
NtRp1658
(dp1659
g62
(dp1660
sg71
g1645
sg64
(lp1661
g57
(g58
g59
NtRp1662
(dp1663
g62
(dp1664
g70
I4
ssg71
g1658
sg64
(lp1665
S'/contador/default/index'
p1666
asbasbasbag57
(g73
g59
NtRp1667
(dp1668
g62
(dp1669
sg71
g1007
sg64
(lp1670
g57
(g78
g59
NtRp1671
(dp1672
g62
(dp1673
g82
g83
ssg71
g1667
sg64
(lp1674
S'path_translated'
p1675
asbag57
(g78
g59
NtRp1676
(dp1677
g62
(dp1678
g89
g90
ssg71
g1667
sg64
(lp1679
S':'
asbag57
(g78
g59
NtRp1680
(dp1681
g62
(dp1682
sg71
g1667
sg64
(lp1683
g57
(g58
g59
NtRp1684
(dp1685
g62
(dp1686
g70
I4
ssg71
g1680
sg64
(lp1687
S'/Users/emir/Documents/beardcode/web2py/wsgihandler.py/contador/default/index'
p1688
asbasbasbag57
(g73
g59
NtRp1689
(dp1690
g62
(dp1691
sg71
g1007
sg64
(lp1692
g57
(g78
g59
NtRp1693
(dp1694
g62
(dp1695
g82
g83
ssg71
g1689
sg64
(lp1696
S'query_string'
p1697
asbag57
(g78
g59
NtRp1698
(dp1699
g62
(dp1700
g89
g90
ssg71
g1689
sg64
(lp1701
S':'
asbag57
(g78
g59
NtRp1702
(dp1703
g62
(dp1704
sg71
g1689
sg64
(lp1705
g57
(g58
g59
NtRp1706
(dp1707
g62
(dp1708
g70
I4
ssg71
g1702
sg64
(lp1709
S''
asbasbasbag57
(g73
g59
NtRp1710
(dp1711
g62
(dp1712
sg71
g1007
sg64
(lp1713
g57
(g78
g59
NtRp1714
(dp1715
g62
(dp1716
g82
g83
ssg71
g1710
sg64
(lp1717
S'remote_addr'
p1718
asbag57
(g78
g59
NtRp1719
(dp1720
g62
(dp1721
g89
g90
ssg71
g1710
sg64
(lp1722
S':'
asbag57
(g78
g59
NtRp1723
(dp1724
g62
(dp1725
sg71
g1710
sg64
(lp1726
g57
(g58
g59
NtRp1727
(dp1728
g62
(dp1729
g70
I4
ssg71
g1723
sg64
(lp1730
g190
asbasbasbag57
(g73
g59
NtRp1731
(dp1732
g62
(dp1733
sg71
g1007
sg64
(lp1734
g57
(g78
g59
NtRp1735
(dp1736
g62
(dp1737
g82
g83
ssg71
g1731
sg64
(lp1738
S'remote_port'
p1739
asbag57
(g78
g59
NtRp1740
(dp1741
g62
(dp1742
g89
g90
ssg71
g1731
sg64
(lp1743
S':'
asbag57
(g78
g59
NtRp1744
(dp1745
g62
(dp1746
sg71
g1731
sg64
(lp1747
g57
(g58
g59
NtRp1748
(dp1749
g62
(dp1750
g70
I4
ssg71
g1744
sg64
(lp1751
S'53332'
p1752
asbasbasbag57
(g73
g59
NtRp1753
(dp1754
g62
(dp1755
sg71
g1007
sg64
(lp1756
g57
(g78
g59
NtRp1757
(dp1758
g62
(dp1759
g82
g83
ssg71
g1753
sg64
(lp1760
S'request_method'
p1761
asbag57
(g78
g59
NtRp1762
(dp1763
g62
(dp1764
g89
g90
ssg71
g1753
sg64
(lp1765
S':'
asbag57
(g78
g59
NtRp1766
(dp1767
g62
(dp1768
sg71
g1753
sg64
(lp1769
g57
(g58
g59
NtRp1770
(dp1771
g62
(dp1772
g70
I4
ssg71
g1766
sg64
(lp1773
S'GET'
p1774
asbasbasbag57
(g73
g59
NtRp1775
(dp1776
g62
(dp1777
sg71
g1007
sg64
(lp1778
g57
(g78
g59
NtRp1779
(dp1780
g62
(dp1781
g82
g83
ssg71
g1775
sg64
(lp1782
S'request_uri'
p1783
asbag57
(g78
g59
NtRp1784
(dp1785
g62
(dp1786
g89
g90
ssg71
g1775
sg64
(lp1787
S':'
asbag57
(g78
g59
NtRp1788
(dp1789
g62
(dp1790
sg71
g1775
sg64
(lp1791
g57
(g58
g59
NtRp1792
(dp1793
g62
(dp1794
g70
I4
ssg71
g1788
sg64
(lp1795
S'/contador/default/index'
p1796
asbasbasbag57
(g73
g59
NtRp1797
(dp1798
g62
(dp1799
sg71
g1007
sg64
(lp1800
g57
(g78
g59
NtRp1801
(dp1802
g62
(dp1803
g82
g83
ssg71
g1797
sg64
(lp1804
S'script_filename'
p1805
asbag57
(g78
g59
NtRp1806
(dp1807
g62
(dp1808
g89
g90
ssg71
g1797
sg64
(lp1809
S':'
asbag57
(g78
g59
NtRp1810
(dp1811
g62
(dp1812
sg71
g1797
sg64
(lp1813
g57
(g58
g59
NtRp1814
(dp1815
g62
(dp1816
g70
I4
ssg71
g1810
sg64
(lp1817
S'/Users/emir/Documents/beardcode/web2py/wsgihandler.py'
p1818
asbasbasbag57
(g73
g59
NtRp1819
(dp1820
g62
(dp1821
sg71
g1007
sg64
(lp1822
g57
(g78
g59
NtRp1823
(dp1824
g62
(dp1825
g82
g83
ssg71
g1819
sg64
(lp1826
S'script_name'
p1827
asbag57
(g78
g59
NtRp1828
(dp1829
g62
(dp1830
g89
g90
ssg71
g1819
sg64
(lp1831
S':'
asbag57
(g78
g59
NtRp1832
(dp1833
g62
(dp1834
sg71
g1819
sg64
(lp1835
g57
(g58
g59
NtRp1836
(dp1837
g62
(dp1838
g70
I4
ssg71
g1832
sg64
(lp1839
S''
asbasbasbag57
(g73
g59
NtRp1840
(dp1841
g62
(dp1842
sg71
g1007
sg64
(lp1843
g57
(g78
g59
NtRp1844
(dp1845
g62
(dp1846
g82
g83
ssg71
g1840
sg64
(lp1847
S'server_addr'
p1848
asbag57
(g78
g59
NtRp1849
(dp1850
g62
(dp1851
g89
g90
ssg71
g1840
sg64
(lp1852
S':'
asbag57
(g78
g59
NtRp1853
(dp1854
g62
(dp1855
sg71
g1840
sg64
(lp1856
g57
(g58
g59
NtRp1857
(dp1858
g62
(dp1859
g70
I4
ssg71
g1853
sg64
(lp1860
S'127.0.0.1'
p1861
asbasbasbag57
(g73
g59
NtRp1862
(dp1863
g62
(dp1864
sg71
g1007
sg64
(lp1865
g57
(g78
g59
NtRp1866
(dp1867
g62
(dp1868
g82
g83
ssg71
g1862
sg64
(lp1869
S'server_admin'
p1870
asbag57
(g78
g59
NtRp1871
(dp1872
g62
(dp1873
g89
g90
ssg71
g1862
sg64
(lp1874
S':'
asbag57
(g78
g59
NtRp1875
(dp1876
g62
(dp1877
sg71
g1862
sg64
(lp1878
g57
(g58
g59
NtRp1879
(dp1880
g62
(dp1881
g70
I4
ssg71
g1875
sg64
(lp1882
S'you@example.com'
p1883
asbasbasbag57
(g73
g59
NtRp1884
(dp1885
g62
(dp1886
sg71
g1007
sg64
(lp1887
g57
(g78
g59
NtRp1888
(dp1889
g62
(dp1890
g82
g83
ssg71
g1884
sg64
(lp1891
S'server_name'
p1892
asbag57
(g78
g59
NtRp1893
(dp1894
g62
(dp1895
g89
g90
ssg71
g1884
sg64
(lp1896
S':'
asbag57
(g78
g59
NtRp1897
(dp1898
g62
(dp1899
sg71
g1884
sg64
(lp1900
g57
(g58
g59
NtRp1901
(dp1902
g62
(dp1903
g70
I4
ssg71
g1897
sg64
(lp1904
S'web2py'
p1905
asbasbasbag57
(g73
g59
NtRp1906
(dp1907
g62
(dp1908
sg71
g1007
sg64
(lp1909
g57
(g78
g59
NtRp1910
(dp1911
g62
(dp1912
g82
g83
ssg71
g1906
sg64
(lp1913
S'server_port'
p1914
asbag57
(g78
g59
NtRp1915
(dp1916
g62
(dp1917
g89
g90
ssg71
g1906
sg64
(lp1918
S':'
asbag57
(g78
g59
NtRp1919
(dp1920
g62
(dp1921
sg71
g1906
sg64
(lp1922
g57
(g58
g59
NtRp1923
(dp1924
g62
(dp1925
g70
I4
ssg71
g1919
sg64
(lp1926
S'80'
p1927
asbasbasbag57
(g73
g59
NtRp1928
(dp1929
g62
(dp1930
sg71
g1007
sg64
(lp1931
g57
(g78
g59
NtRp1932
(dp1933
g62
(dp1934
g82
g83
ssg71
g1928
sg64
(lp1935
S'server_protocol'
p1936
asbag57
(g78
g59
NtRp1937
(dp1938
g62
(dp1939
g89
g90
ssg71
g1928
sg64
(lp1940
S':'
asbag57
(g78
g59
NtRp1941
(dp1942
g62
(dp1943
sg71
g1928
sg64
(lp1944
g57
(g58
g59
NtRp1945
(dp1946
g62
(dp1947
g70
I4
ssg71
g1941
sg64
(lp1948
S'HTTP/1.1'
p1949
asbasbasbag57
(g73
g59
NtRp1950
(dp1951
g62
(dp1952
sg71
g1007
sg64
(lp1953
g57
(g78
g59
NtRp1954
(dp1955
g62
(dp1956
g82
g83
ssg71
g1950
sg64
(lp1957
S'server_signature'
p1958
asbag57
(g78
g59
NtRp1959
(dp1960
g62
(dp1961
g89
g90
ssg71
g1950
sg64
(lp1962
S':'
asbag57
(g78
g59
NtRp1963
(dp1964
g62
(dp1965
sg71
g1950
sg64
(lp1966
g57
(g58
g59
NtRp1967
(dp1968
g62
(dp1969
g70
I4
ssg71
g1963
sg64
(lp1970
S''
asbasbasbag57
(g73
g59
NtRp1971
(dp1972
g62
(dp1973
sg71
g1007
sg64
(lp1974
g57
(g78
g59
NtRp1975
(dp1976
g62
(dp1977
g82
g83
ssg71
g1971
sg64
(lp1978
S'server_software'
p1979
asbag57
(g78
g59
NtRp1980
(dp1981
g62
(dp1982
g89
g90
ssg71
g1971
sg64
(lp1983
S':'
asbag57
(g78
g59
NtRp1984
(dp1985
g62
(dp1986
sg71
g1971
sg64
(lp1987
g57
(g58
g59
NtRp1988
(dp1989
g62
(dp1990
g70
I4
ssg71
g1984
sg64
(lp1991
S'Apache/2.2.22 (Unix) DAV/2 mod_wsgi/3.3 Python/2.6.7 PHP/5.3.13 with Suhosin-Patch mod_ssl/2.2.22 OpenSSL/0.9.8r'
p1992
asbasbasbag57
(g73
g59
NtRp1993
(dp1994
g62
(dp1995
sg71
g1007
sg64
(lp1996
g57
(g78
g59
NtRp1997
(dp1998
g62
(dp1999
g82
g83
ssg71
g1993
sg64
(lp2000
S'web2py_path'
p2001
asbag57
(g78
g59
NtRp2002
(dp2003
g62
(dp2004
g89
g90
ssg71
g1993
sg64
(lp2005
S':'
asbag57
(g78
g59
NtRp2006
(dp2007
g62
(dp2008
sg71
g1993
sg64
(lp2009
g57
(g58
g59
NtRp2010
(dp2011
g62
(dp2012
g70
I4
ssg71
g2006
sg64
(lp2013
g1054
asbasbasbag57
(g73
g59
NtRp2014
(dp2015
g62
(dp2016
sg71
g1007
sg64
(lp2017
g57
(g78
g59
NtRp2018
(dp2019
g62
(dp2020
g82
g83
ssg71
g2014
sg64
(lp2021
S'web2py_version'
p2022
asbag57
(g78
g59
NtRp2023
(dp2024
g62
(dp2025
g89
g90
ssg71
g2014
sg64
(lp2026
S':'
asbag57
(g78
g59
NtRp2027
(dp2028
g62
(dp2029
sg71
g2014
sg64
(lp2030
g57
(g58
g59
NtRp2031
(dp2032
g62
(dp2033
g70
I4
ssg71
g2027
sg64
(lp2034
g57
(g66
g59
NtRp2035
(dp2036
g62
(dp2037
g70
I3
ssg71
Nsg64
(lp2038
g57
(g73
g59
NtRp2039
(dp2040
g62
(dp2041
sg71
g2035
sg64
(lp2042
g57
(g78
g59
NtRp2043
(dp2044
g62
(dp2045
sg71
g2039
sg64
(lp2046
g57
(g58
g59
NtRp2047
(dp2048
g62
(dp2049
g70
I3
ssg71
g2043
sg64
(lp2050
S'1'
asbasbasbag57
(g73
g59
NtRp2051
(dp2052
g62
(dp2053
sg71
g2035
sg64
(lp2054
g57
(g78
g59
NtRp2055
(dp2056
g62
(dp2057
sg71
g2051
sg64
(lp2058
g57
(g58
g59
NtRp2059
(dp2060
g62
(dp2061
g70
I3
ssg71
g2055
sg64
(lp2062
S'99'
p2063
asbasbasbag57
(g73
g59
NtRp2064
(dp2065
g62
(dp2066
sg71
g2035
sg64
(lp2067
g57
(g78
g59
NtRp2068
(dp2069
g62
(dp2070
sg71
g2064
sg64
(lp2071
g57
(g58
g59
NtRp2072
(dp2073
g62
(dp2074
g70
I3
ssg71
g2068
sg64
(lp2075
S'7'
asbasbasbag57
(g73
g59
NtRp2076
(dp2077
g62
(dp2078
sg71
g2035
sg64
(lp2079
g57
(g78
g59
NtRp2080
(dp2081
g62
(dp2082
sg71
g2076
sg64
(lp2083
g57
(g58
g59
NtRp2084
(dp2085
g62
(dp2086
g70
I3
ssg71
g2080
sg64
(lp2087
S'datetime.datetime(2012, 3, 4, 22, 12, 8)'
p2088
asbasbasbag57
(g73
g59
NtRp2089
(dp2090
g62
(dp2091
sg71
g2035
sg64
(lp2092
g57
(g78
g59
NtRp2093
(dp2094
g62
(dp2095
sg71
g2089
sg64
(lp2096
g57
(g58
g59
NtRp2097
(dp2098
g62
(dp2099
g70
I3
ssg71
g2093
sg64
(lp2100
S'stable'
p2101
asbasbasbasbasbasbasbag57
(g73
g59
NtRp2102
(dp2103
g62
(dp2104
sg71
g1007
sg64
(lp2105
g57
(g78
g59
NtRp2106
(dp2107
g62
(dp2108
g82
g83
ssg71
g2102
sg64
(lp2109
S'wsgi_errors'
p2110
asbag57
(g78
g59
NtRp2111
(dp2112
g62
(dp2113
g89
g90
ssg71
g2102
sg64
(lp2114
S':'
asbag57
(g78
g59
NtRp2115
(dp2116
g62
(dp2117
sg71
g2102
sg64
(lp2118
g57
(g58
g59
NtRp2119
(dp2120
g62
(dp2121
g70
I4
ssg71
g2115
sg64
(lp2122
S'<mod_wsgi.Log object at 0x11056e530>'
p2123
asbasbasbag57
(g73
g59
NtRp2124
(dp2125
g62
(dp2126
sg71
g1007
sg64
(lp2127
g57
(g78
g59
NtRp2128
(dp2129
g62
(dp2130
g82
g83
ssg71
g2124
sg64
(lp2131
S'wsgi_file_wrapper'
p2132
asbag57
(g78
g59
NtRp2133
(dp2134
g62
(dp2135
g89
g90
ssg71
g2124
sg64
(lp2136
S':'
asbag57
(g78
g59
NtRp2137
(dp2138
g62
(dp2139
sg71
g2124
sg64
(lp2140
g57
(g58
g59
NtRp2141
(dp2142
g62
(dp2143
g70
I4
ssg71
g2137
sg64
(lp2144
S'<built-in method file_wrapper of mod_wsgi.Adapter object at 0x10fdb2d50>'
p2145
asbasbasbag57
(g73
g59
NtRp2146
(dp2147
g62
(dp2148
sg71
g1007
sg64
(lp2149
g57
(g78
g59
NtRp2150
(dp2151
g62
(dp2152
g82
g83
ssg71
g2146
sg64
(lp2153
S'wsgi_input'
p2154
asbag57
(g78
g59
NtRp2155
(dp2156
g62
(dp2157
g89
g90
ssg71
g2146
sg64
(lp2158
S':'
asbag57
(g78
g59
NtRp2159
(dp2160
g62
(dp2161
sg71
g2146
sg64
(lp2162
g57
(g58
g59
NtRp2163
(dp2164
g62
(dp2165
g70
I4
ssg71
g2159
sg64
(lp2166
S'<mod_wsgi.Input object at 0x1105de070>'
p2167
asbasbasbag57
(g73
g59
NtRp2168
(dp2169
g62
(dp2170
sg71
g1007
sg64
(lp2171
g57
(g78
g59
NtRp2172
(dp2173
g62
(dp2174
g82
g83
ssg71
g2168
sg64
(lp2175
S'wsgi_multiprocess'
p2176
asbag57
(g78
g59
NtRp2177
(dp2178
g62
(dp2179
g89
g90
ssg71
g2168
sg64
(lp2180
S':'
asbag57
(g78
g59
NtRp2181
(dp2182
g62
(dp2183
sg71
g2168
sg64
(lp2184
g57
(g58
g59
NtRp2185
(dp2186
g62
(dp2187
g70
I4
ssg71
g2181
sg64
(lp2188
S'True'
p2189
asbasbasbag57
(g73
g59
NtRp2190
(dp2191
g62
(dp2192
sg71
g1007
sg64
(lp2193
g57
(g78
g59
NtRp2194
(dp2195
g62
(dp2196
g82
g83
ssg71
g2190
sg64
(lp2197
S'wsgi_multithread'
p2198
asbag57
(g78
g59
NtRp2199
(dp2200
g62
(dp2201
g89
g90
ssg71
g2190
sg64
(lp2202
S':'
asbag57
(g78
g59
NtRp2203
(dp2204
g62
(dp2205
sg71
g2190
sg64
(lp2206
g57
(g58
g59
NtRp2207
(dp2208
g62
(dp2209
g70
I4
ssg71
g2203
sg64
(lp2210
g100
asbasbasbag57
(g73
g59
NtRp2211
(dp2212
g62
(dp2213
sg71
g1007
sg64
(lp2214
g57
(g78
g59
NtRp2215
(dp2216
g62
(dp2217
g82
g83
ssg71
g2211
sg64
(lp2218
S'wsgi_run_once'
p2219
asbag57
(g78
g59
NtRp2220
(dp2221
g62
(dp2222
g89
g90
ssg71
g2211
sg64
(lp2223
S':'
asbag57
(g78
g59
NtRp2224
(dp2225
g62
(dp2226
sg71
g2211
sg64
(lp2227
g57
(g58
g59
NtRp2228
(dp2229
g62
(dp2230
g70
I4
ssg71
g2224
sg64
(lp2231
g100
asbasbasbag57
(g73
g59
NtRp2232
(dp2233
g62
(dp2234
sg71
g1007
sg64
(lp2235
g57
(g78
g59
NtRp2236
(dp2237
g62
(dp2238
g82
g83
ssg71
g2232
sg64
(lp2239
S'wsgi_url_scheme'
p2240
asbag57
(g78
g59
NtRp2241
(dp2242
g62
(dp2243
g89
g90
ssg71
g2232
sg64
(lp2244
S':'
asbag57
(g78
g59
NtRp2245
(dp2246
g62
(dp2247
sg71
g2232
sg64
(lp2248
g57
(g58
g59
NtRp2249
(dp2250
g62
(dp2251
g70
I4
ssg71
g2245
sg64
(lp2252
S'http'
p2253
asbasbasbag57
(g73
g59
NtRp2254
(dp2255
g62
(dp2256
sg71
g1007
sg64
(lp2257
g57
(g78
g59
NtRp2258
(dp2259
g62
(dp2260
g82
g83
ssg71
g2254
sg64
(lp2261
S'wsgi_version'
p2262
asbag57
(g78
g59
NtRp2263
(dp2264
g62
(dp2265
g89
g90
ssg71
g2254
sg64
(lp2266
S':'
asbag57
(g78
g59
NtRp2267
(dp2268
g62
(dp2269
sg71
g2254
sg64
(lp2270
g57
(g58
g59
NtRp2271
(dp2272
g62
(dp2273
g70
I4
ssg71
g2267
sg64
(lp2274
g57
(g66
g59
NtRp2275
(dp2276
g62
(dp2277
g70
I3
ssg71
Nsg64
(lp2278
g57
(g73
g59
NtRp2279
(dp2280
g62
(dp2281
sg71
g2275
sg64
(lp2282
g57
(g78
g59
NtRp2283
(dp2284
g62
(dp2285
sg71
g2279
sg64
(lp2286
g57
(g58
g59
NtRp2287
(dp2288
g62
(dp2289
g70
I3
ssg71
g2283
sg64
(lp2290
S'1'
asbasbasbag57
(g73
g59
NtRp2291
(dp2292
g62
(dp2293
sg71
g2275
sg64
(lp2294
g57
(g78
g59
NtRp2295
(dp2296
g62
(dp2297
sg71
g2291
sg64
(lp2298
g57
(g58
g59
NtRp2299
(dp2300
g62
(dp2301
g70
I3
ssg71
g2295
sg64
(lp2302
S'1'
asbasbasbasbasbasbasbasbasbasbasbag57
(g73
g59
NtRp2303
(dp2304
g62
(dp2305
sg71
g67
sg64
(lp2306
g57
(g78
g59
NtRp2307
(dp2308
g62
(dp2309
g82
g83
ssg71
g2303
sg64
(lp2310
S'extension'
p2311
asbag57
(g78
g59
NtRp2312
(dp2313
g62
(dp2314
g89
g90
ssg71
g2303
sg64
(lp2315
S':'
asbag57
(g78
g59
NtRp2316
(dp2317
g62
(dp2318
sg71
g2303
sg64
(lp2319
g57
(g58
g59
NtRp2320
(dp2321
g62
(dp2322
g70
I5
ssg71
g2316
sg64
(lp2323
S'html'
p2324
asbasbasbag57
(g73
g59
NtRp2325
(dp2326
g62
(dp2327
sg71
g67
sg64
(lp2328
g57
(g78
g59
NtRp2329
(dp2330
g62
(dp2331
g82
g83
ssg71
g2325
sg64
(lp2332
S'folder'
p2333
asbag57
(g78
g59
NtRp2334
(dp2335
g62
(dp2336
g89
g90
ssg71
g2325
sg64
(lp2337
S':'
asbag57
(g78
g59
NtRp2338
(dp2339
g62
(dp2340
sg71
g2325
sg64
(lp2341
g57
(g58
g59
NtRp2342
(dp2343
g62
(dp2344
g70
I5
ssg71
g2338
sg64
(lp2345
S'/Users/emir/Documents/beardcode/web2py/applications/contador/'
p2346
asbasbasbag57
(g73
g59
NtRp2347
(dp2348
g62
(dp2349
sg71
g67
sg64
(lp2350
g57
(g78
g59
NtRp2351
(dp2352
g62
(dp2353
g82
g83
ssg71
g2347
sg64
(lp2354
S'function'
p2355
asbag57
(g78
g59
NtRp2356
(dp2357
g62
(dp2358
g89
g90
ssg71
g2347
sg64
(lp2359
S':'
asbag57
(g78
g59
NtRp2360
(dp2361
g62
(dp2362
sg71
g2347
sg64
(lp2363
g57
(g58
g59
NtRp2364
(dp2365
g62
(dp2366
g70
I5
ssg71
g2360
sg64
(lp2367
S'index'
p2368
asbasbasbag57
(g73
g59
NtRp2369
(dp2370
g62
(dp2371
sg71
g67
sg64
(lp2372
g57
(g78
g59
NtRp2373
(dp2374
g62
(dp2375
g82
g83
ssg71
g2369
sg64
(lp2376
S'get_vars'
p2377
asbag57
(g78
g59
NtRp2378
(dp2379
g62
(dp2380
g89
g90
ssg71
g2369
sg64
(lp2381
S':'
asbag57
(g78
g59
NtRp2382
(dp2383
g62
(dp2384
sg71
g2369
sg64
(lp2385
g57
(g58
g59
NtRp2386
(dp2387
g62
(dp2388
g70
I5
ssg71
g2382
sg64
(lp2389
g57
(g66
g59
NtRp2390
(dp2391
g62
(dp2392
g70
I4
ssg71
Nsg64
(lp2393
sbasbasbasbag57
(g73
g59
NtRp2394
(dp2395
g62
(dp2396
sg71
g67
sg64
(lp2397
g57
(g78
g59
NtRp2398
(dp2399
g62
(dp2400
g82
g83
ssg71
g2394
sg64
(lp2401
S'global_settings'
p2402
asbag57
(g78
g59
NtRp2403
(dp2404
g62
(dp2405
g89
g90
ssg71
g2394
sg64
(lp2406
S':'
asbag57
(g78
g59
NtRp2407
(dp2408
g62
(dp2409
sg71
g2394
sg64
(lp2410
g57
(g58
g59
NtRp2411
(dp2412
g62
(dp2413
g70
I5
ssg71
g2407
sg64
(lp2414
g57
(g66
g59
NtRp2415
(dp2416
g62
(dp2417
g70
I4
ssg71
Nsg64
(lp2418
g57
(g73
g59
NtRp2419
(dp2420
g62
(dp2421
sg71
g2415
sg64
(lp2422
g57
(g78
g59
NtRp2423
(dp2424
g62
(dp2425
g82
g83
ssg71
g2419
sg64
(lp2426
g1019
asbag57
(g78
g59
NtRp2427
(dp2428
g62
(dp2429
g89
g90
ssg71
g2419
sg64
(lp2430
S':'
asbag57
(g78
g59
NtRp2431
(dp2432
g62
(dp2433
sg71
g2419
sg64
(lp2434
g57
(g58
g59
NtRp2435
(dp2436
g62
(dp2437
g70
I4
ssg71
g2431
sg64
(lp2438
S"set(['/Users/emir/Documents/beardcode/web2py/applications/contador/'])"
p2439
asbasbasbag57
(g73
g59
NtRp2440
(dp2441
g62
(dp2442
sg71
g2415
sg64
(lp2443
g57
(g78
g59
NtRp2444
(dp2445
g62
(dp2446
g82
g83
ssg71
g2440
sg64
(lp2447
g1041
asbag57
(g78
g59
NtRp2448
(dp2449
g62
(dp2450
g89
g90
ssg71
g2440
sg64
(lp2451
S':'
asbag57
(g78
g59
NtRp2452
(dp2453
g62
(dp2454
sg71
g2440
sg64
(lp2455
g57
(g58
g59
NtRp2456
(dp2457
g62
(dp2458
g70
I4
ssg71
g2452
sg64
(lp2459
g1054
asbasbasbag57
(g73
g59
NtRp2460
(dp2461
g62
(dp2462
sg71
g2415
sg64
(lp2463
g57
(g78
g59
NtRp2464
(dp2465
g62
(dp2466
g82
g83
ssg71
g2460
sg64
(lp2467
g1063
asbag57
(g78
g59
NtRp2468
(dp2469
g62
(dp2470
g89
g90
ssg71
g2460
sg64
(lp2471
S':'
asbag57
(g78
g59
NtRp2472
(dp2473
g62
(dp2474
sg71
g2460
sg64
(lp2475
g57
(g58
g59
NtRp2476
(dp2477
g62
(dp2478
g70
I4
ssg71
g2472
sg64
(lp2479
S'set([])'
p2480
asbasbasbag57
(g73
g59
NtRp2481
(dp2482
g62
(dp2483
sg71
g2415
sg64
(lp2484
g57
(g78
g59
NtRp2485
(dp2486
g62
(dp2487
g82
g83
ssg71
g2481
sg64
(lp2488
g1085
asbag57
(g78
g59
NtRp2489
(dp2490
g62
(dp2491
g89
g90
ssg71
g2481
sg64
(lp2492
S':'
asbag57
(g78
g59
NtRp2493
(dp2494
g62
(dp2495
sg71
g2481
sg64
(lp2496
g57
(g58
g59
NtRp2497
(dp2498
g62
(dp2499
g70
I4
ssg71
g2493
sg64
(lp2500
g100
asbasbasbag57
(g73
g59
NtRp2501
(dp2502
g62
(dp2503
sg71
g2415
sg64
(lp2504
g57
(g78
g59
NtRp2505
(dp2506
g62
(dp2507
g82
g83
ssg71
g2501
sg64
(lp2508
g1150
asbag57
(g78
g59
NtRp2509
(dp2510
g62
(dp2511
g89
g90
ssg71
g2501
sg64
(lp2512
S':'
asbag57
(g78
g59
NtRp2513
(dp2514
g62
(dp2515
sg71
g2501
sg64
(lp2516
g57
(g58
g59
NtRp2517
(dp2518
g62
(dp2519
g70
I4
ssg71
g2513
sg64
(lp2520
g1054
asbasbasbag57
(g73
g59
NtRp2521
(dp2522
g62
(dp2523
sg71
g2415
sg64
(lp2524
g57
(g78
g59
NtRp2525
(dp2526
g62
(dp2527
g82
g83
ssg71
g2521
sg64
(lp2528
g1369
asbag57
(g78
g59
NtRp2529
(dp2530
g62
(dp2531
g89
g90
ssg71
g2521
sg64
(lp2532
S':'
asbag57
(g78
g59
NtRp2533
(dp2534
g62
(dp2535
sg71
g2521
sg64
(lp2536
g57
(g58
g59
NtRp2537
(dp2538
g62
(dp2539
g70
I4
ssg71
g2533
sg64
(lp2540
g100
asbasbasbag57
(g73
g59
NtRp2541
(dp2542
g62
(dp2543
sg71
g2415
sg64
(lp2544
g57
(g78
g59
NtRp2545
(dp2546
g62
(dp2547
g82
g83
ssg71
g2541
sg64
(lp2548
g1390
asbag57
(g78
g59
NtRp2549
(dp2550
g62
(dp2551
g89
g90
ssg71
g2541
sg64
(lp2552
S':'
asbag57
(g78
g59
NtRp2553
(dp2554
g62
(dp2555
sg71
g2541
sg64
(lp2556
g57
(g58
g59
NtRp2557
(dp2558
g62
(dp2559
g70
I4
ssg71
g2553
sg64
(lp2560
g100
asbasbasbag57
(g73
g59
NtRp2561
(dp2562
g62
(dp2563
sg71
g2415
sg64
(lp2564
g57
(g78
g59
NtRp2565
(dp2566
g62
(dp2567
g82
g83
ssg71
g2561
sg64
(lp2568
g2022
asbag57
(g78
g59
NtRp2569
(dp2570
g62
(dp2571
g89
g90
ssg71
g2561
sg64
(lp2572
S':'
asbag57
(g78
g59
NtRp2573
(dp2574
g62
(dp2575
sg71
g2561
sg64
(lp2576
g57
(g58
g59
NtRp2577
(dp2578
g62
(dp2579
g70
I4
ssg71
g2573
sg64
(lp2580
g57
(g66
g59
NtRp2581
(dp2582
g62
(dp2583
g70
I3
ssg71
Nsg64
(lp2584
g57
(g73
g59
NtRp2585
(dp2586
g62
(dp2587
sg71
g2581
sg64
(lp2588
g57
(g78
g59
NtRp2589
(dp2590
g62
(dp2591
sg71
g2585
sg64
(lp2592
g57
(g58
g59
NtRp2593
(dp2594
g62
(dp2595
g70
I3
ssg71
g2589
sg64
(lp2596
S'1'
asbasbasbag57
(g73
g59
NtRp2597
(dp2598
g62
(dp2599
sg71
g2581
sg64
(lp2600
g57
(g78
g59
NtRp2601
(dp2602
g62
(dp2603
sg71
g2597
sg64
(lp2604
g57
(g58
g59
NtRp2605
(dp2606
g62
(dp2607
g70
I3
ssg71
g2601
sg64
(lp2608
S'99'
p2609
asbasbasbag57
(g73
g59
NtRp2610
(dp2611
g62
(dp2612
sg71
g2581
sg64
(lp2613
g57
(g78
g59
NtRp2614
(dp2615
g62
(dp2616
sg71
g2610
sg64
(lp2617
g57
(g58
g59
NtRp2618
(dp2619
g62
(dp2620
g70
I3
ssg71
g2614
sg64
(lp2621
S'7'
asbasbasbag57
(g73
g59
NtRp2622
(dp2623
g62
(dp2624
sg71
g2581
sg64
(lp2625
g57
(g78
g59
NtRp2626
(dp2627
g62
(dp2628
sg71
g2622
sg64
(lp2629
g57
(g58
g59
NtRp2630
(dp2631
g62
(dp2632
g70
I3
ssg71
g2626
sg64
(lp2633
S'datetime.datetime(2012, 3, 4, 22, 12, 8)'
p2634
asbasbasbag57
(g73
g59
NtRp2635
(dp2636
g62
(dp2637
sg71
g2581
sg64
(lp2638
g57
(g78
g59
NtRp2639
(dp2640
g62
(dp2641
sg71
g2635
sg64
(lp2642
g57
(g58
g59
NtRp2643
(dp2644
g62
(dp2645
g70
I3
ssg71
g2639
sg64
(lp2646
g2101
asbasbasbasbasbasbasbasbasbasbasbag57
(g73
g59
NtRp2647
(dp2648
g62
(dp2649
sg71
g67
sg64
(lp2650
g57
(g78
g59
NtRp2651
(dp2652
g62
(dp2653
g82
g83
ssg71
g2647
sg64
(lp2654
S'is_https'
p2655
asbag57
(g78
g59
NtRp2656
(dp2657
g62
(dp2658
g89
g90
ssg71
g2647
sg64
(lp2659
S':'
asbag57
(g78
g59
NtRp2660
(dp2661
g62
(dp2662
sg71
g2647
sg64
(lp2663
g57
(g58
g59
NtRp2664
(dp2665
g62
(dp2666
g70
I5
ssg71
g2660
sg64
(lp2667
g100
asbasbasbag57
(g73
g59
NtRp2668
(dp2669
g62
(dp2670
sg71
g67
sg64
(lp2671
g57
(g78
g59
NtRp2672
(dp2673
g62
(dp2674
g82
g83
ssg71
g2668
sg64
(lp2675
S'is_local'
p2676
asbag57
(g78
g59
NtRp2677
(dp2678
g62
(dp2679
g89
g90
ssg71
g2668
sg64
(lp2680
S':'
asbag57
(g78
g59
NtRp2681
(dp2682
g62
(dp2683
sg71
g2668
sg64
(lp2684
g57
(g58
g59
NtRp2685
(dp2686
g62
(dp2687
g70
I5
ssg71
g2681
sg64
(lp2688
g2189
asbasbasbag57
(g73
g59
NtRp2689
(dp2690
g62
(dp2691
sg71
g67
sg64
(lp2692
g57
(g78
g59
NtRp2693
(dp2694
g62
(dp2695
g82
g83
ssg71
g2689
sg64
(lp2696
S'is_restful'
p2697
asbag57
(g78
g59
NtRp2698
(dp2699
g62
(dp2700
g89
g90
ssg71
g2689
sg64
(lp2701
S':'
asbag57
(g78
g59
NtRp2702
(dp2703
g62
(dp2704
sg71
g2689
sg64
(lp2705
g57
(g58
g59
NtRp2706
(dp2707
g62
(dp2708
g70
I5
ssg71
g2702
sg64
(lp2709
g100
asbasbasbag57
(g73
g59
NtRp2710
(dp2711
g62
(dp2712
sg71
g67
sg64
(lp2713
g57
(g78
g59
NtRp2714
(dp2715
g62
(dp2716
g82
g83
ssg71
g2710
sg64
(lp2717
S'now'
p2718
asbag57
(g78
g59
NtRp2719
(dp2720
g62
(dp2721
g89
g90
ssg71
g2710
sg64
(lp2722
S':'
asbag57
(g78
g59
NtRp2723
(dp2724
g62
(dp2725
sg71
g2710
sg64
(lp2726
g57
(g58
g59
NtRp2727
(dp2728
g62
(dp2729
g70
I5
ssg71
g2723
sg64
(lp2730
S'datetime.datetime(2012, 8, 3, 10, 51, 58, 769664)'
p2731
asbasbasbag57
(g73
g59
NtRp2732
(dp2733
g62
(dp2734
sg71
g67
sg64
(lp2735
g57
(g78
g59
NtRp2736
(dp2737
g62
(dp2738
g82
g83
ssg71
g2732
sg64
(lp2739
S'post_vars'
p2740
asbag57
(g78
g59
NtRp2741
(dp2742
g62
(dp2743
g89
g90
ssg71
g2732
sg64
(lp2744
S':'
asbag57
(g78
g59
NtRp2745
(dp2746
g62
(dp2747
sg71
g2732
sg64
(lp2748
g57
(g58
g59
NtRp2749
(dp2750
g62
(dp2751
g70
I5
ssg71
g2745
sg64
(lp2752
g57
(g66
g59
NtRp2753
(dp2754
g62
(dp2755
g70
I4
ssg71
Nsg64
(lp2756
sbasbasbasbag57
(g73
g59
NtRp2757
(dp2758
g62
(dp2759
sg71
g67
sg64
(lp2760
g57
(g78
g59
NtRp2761
(dp2762
g62
(dp2763
g82
g83
ssg71
g2757
sg64
(lp2764
S'url'
p2765
asbag57
(g78
g59
NtRp2766
(dp2767
g62
(dp2768
g89
g90
ssg71
g2757
sg64
(lp2769
S':'
asbag57
(g78
g59
NtRp2770
(dp2771
g62
(dp2772
sg71
g2757
sg64
(lp2773
g57
(g58
g59
NtRp2774
(dp2775
g62
(dp2776
g70
I5
ssg71
g2770
sg64
(lp2777
S'/contador/default/index'
p2778
asbasbasbag57
(g73
g59
NtRp2779
(dp2780
g62
(dp2781
sg71
g67
sg64
(lp2782
g57
(g78
g59
NtRp2783
(dp2784
g62
(dp2785
g82
g83
ssg71
g2779
sg64
(lp2786
S'utcnow'
p2787
asbag57
(g78
g59
NtRp2788
(dp2789
g62
(dp2790
g89
g90
ssg71
g2779
sg64
(lp2791
S':'
asbag57
(g78
g59
NtRp2792
(dp2793
g62
(dp2794
sg71
g2779
sg64
(lp2795
g57
(g58
g59
NtRp2796
(dp2797
g62
(dp2798
g70
I5
ssg71
g2792
sg64
(lp2799
S'datetime.datetime(2012, 8, 3, 15, 51, 58, 769838)'
p2800
asbasbasbag57
(g73
g59
NtRp2801
(dp2802
g62
(dp2803
sg71
g67
sg64
(lp2804
g57
(g78
g59
NtRp2805
(dp2806
g62
(dp2807
g82
g83
ssg71
g2801
sg64
(lp2808
S'uuid'
p2809
asbag57
(g78
g59
NtRp2810
(dp2811
g62
(dp2812
g89
g90
ssg71
g2801
sg64
(lp2813
S':'
asbag57
(g78
g59
NtRp2814
(dp2815
g62
(dp2816
sg71
g2801
sg64
(lp2817
g57
(g58
g59
NtRp2818
(dp2819
g62
(dp2820
g70
I5
ssg71
g2814
sg64
(lp2821
S'contador/127.0.0.1.2012-08-03.10-51-58.73bd4434-949e-4570-b8a8-886e0e279699'
p2822
asbasbasbag57
(g73
g59
NtRp2823
(dp2824
g62
(dp2825
sg71
g67
sg64
(lp2826
g57
(g78
g59
NtRp2827
(dp2828
g62
(dp2829
g82
g83
ssg71
g2823
sg64
(lp2830
S'vars'
p2831
asbag57
(g78
g59
NtRp2832
(dp2833
g62
(dp2834
g89
g90
ssg71
g2823
sg64
(lp2835
S':'
asbag57
(g78
g59
NtRp2836
(dp2837
g62
(dp2838
sg71
g2823
sg64
(lp2839
g57
(g58
g59
NtRp2840
(dp2841
g62
(dp2842
g70
I5
ssg71
g2836
sg64
(lp2843
g57
(g66
g59
NtRp2844
(dp2845
g62
(dp2846
g70
I4
ssg71
Nsg64
(lp2847
sbasbasbasbag57
(g73
g59
NtRp2848
(dp2849
g62
(dp2850
sg71
g67
sg64
(lp2851
g57
(g78
g59
NtRp2852
(dp2853
g62
(dp2854
g82
g83
ssg71
g2848
sg64
(lp2855
S'wsgi'
p2856
asbag57
(g78
g59
NtRp2857
(dp2858
g62
(dp2859
g89
g90
ssg71
g2848
sg64
(lp2860
S':'
asbag57
(g78
g59
NtRp2861
(dp2862
g62
(dp2863
sg71
g2848
sg64
(lp2864
g57
(g58
g59
NtRp2865
(dp2866
g62
(dp2867
g70
I5
ssg71
g2861
sg64
(lp2868
g57
(g66
g59
NtRp2869
(dp2870
g62
(dp2871
g70
I4
ssg71
Nsg64
(lp2872
g57
(g73
g59
NtRp2873
(dp2874
g62
(dp2875
sg71
g2869
sg64
(lp2876
g57
(g78
g59
NtRp2877
(dp2878
g62
(dp2879
g82
g83
ssg71
g2873
sg64
(lp2880
S'environ'
p2881
asbag57
(g78
g59
NtRp2882
(dp2883
g62
(dp2884
g89
g90
ssg71
g2873
sg64
(lp2885
S':'
asbag57
(g78
g59
NtRp2886
(dp2887
g62
(dp2888
sg71
g2873
sg64
(lp2889
g57
(g58
g59
NtRp2890
(dp2891
g62
(dp2892
g70
I4
ssg71
g2886
sg64
(lp2893
g57
(g66
g59
NtRp2894
(dp2895
g62
(dp2896
g70
I3
ssg71
Nsg64
(lp2897
g57
(g73
g59
NtRp2898
(dp2899
g62
(dp2900
sg71
g2894
sg64
(lp2901
g57
(g78
g59
NtRp2902
(dp2903
g62
(dp2904
g82
g83
ssg71
g2898
sg64
(lp2905
S'DOCUMENT_ROOT'
p2906
asbag57
(g78
g59
NtRp2907
(dp2908
g62
(dp2909
g89
g90
ssg71
g2898
sg64
(lp2910
S':'
asbag57
(g78
g59
NtRp2911
(dp2912
g62
(dp2913
sg71
g2898
sg64
(lp2914
g57
(g58
g59
NtRp2915
(dp2916
g62
(dp2917
g70
I3
ssg71
g2911
sg64
(lp2918
g1119
asbasbasbag57
(g73
g59
NtRp2919
(dp2920
g62
(dp2921
sg71
g2894
sg64
(lp2922
g57
(g78
g59
NtRp2923
(dp2924
g62
(dp2925
g82
g83
ssg71
g2919
sg64
(lp2926
S'GATEWAY_INTERFACE'
p2927
asbag57
(g78
g59
NtRp2928
(dp2929
g62
(dp2930
g89
g90
ssg71
g2919
sg64
(lp2931
S':'
asbag57
(g78
g59
NtRp2932
(dp2933
g62
(dp2934
sg71
g2919
sg64
(lp2935
g57
(g58
g59
NtRp2936
(dp2937
g62
(dp2938
g70
I3
ssg71
g2932
sg64
(lp2939
g1141
asbasbasbag57
(g73
g59
NtRp2940
(dp2941
g62
(dp2942
sg71
g2894
sg64
(lp2943
g57
(g78
g59
NtRp2944
(dp2945
g62
(dp2946
g82
g83
ssg71
g2940
sg64
(lp2947
S'HTTP_ACCEPT'
p2948
asbag57
(g78
g59
NtRp2949
(dp2950
g62
(dp2951
g89
g90
ssg71
g2940
sg64
(lp2952
S':'
asbag57
(g78
g59
NtRp2953
(dp2954
g62
(dp2955
sg71
g2940
sg64
(lp2956
g57
(g58
g59
NtRp2957
(dp2958
g62
(dp2959
g70
I3
ssg71
g2953
sg64
(lp2960
g1184
asbasbasbag57
(g73
g59
NtRp2961
(dp2962
g62
(dp2963
sg71
g2894
sg64
(lp2964
g57
(g78
g59
NtRp2965
(dp2966
g62
(dp2967
g82
g83
ssg71
g2961
sg64
(lp2968
S'HTTP_ACCEPT_CHARSET'
p2969
asbag57
(g78
g59
NtRp2970
(dp2971
g62
(dp2972
g89
g90
ssg71
g2961
sg64
(lp2973
S':'
asbag57
(g78
g59
NtRp2974
(dp2975
g62
(dp2976
sg71
g2961
sg64
(lp2977
g57
(g58
g59
NtRp2978
(dp2979
g62
(dp2980
g70
I3
ssg71
g2974
sg64
(lp2981
g1206
asbasbasbag57
(g73
g59
NtRp2982
(dp2983
g62
(dp2984
sg71
g2894
sg64
(lp2985
g57
(g78
g59
NtRp2986
(dp2987
g62
(dp2988
g82
g83
ssg71
g2982
sg64
(lp2989
S'HTTP_ACCEPT_ENCODING'
p2990
asbag57
(g78
g59
NtRp2991
(dp2992
g62
(dp2993
g89
g90
ssg71
g2982
sg64
(lp2994
S':'
asbag57
(g78
g59
NtRp2995
(dp2996
g62
(dp2997
sg71
g2982
sg64
(lp2998
g57
(g58
g59
NtRp2999
(dp3000
g62
(dp3001
g70
I3
ssg71
g2995
sg64
(lp3002
g1228
asbasbasbag57
(g73
g59
NtRp3003
(dp3004
g62
(dp3005
sg71
g2894
sg64
(lp3006
g57
(g78
g59
NtRp3007
(dp3008
g62
(dp3009
g82
g83
ssg71
g3003
sg64
(lp3010
S'HTTP_ACCEPT_LANGUAGE'
p3011
asbag57
(g78
g59
NtRp3012
(dp3013
g62
(dp3014
g89
g90
ssg71
g3003
sg64
(lp3015
S':'
asbag57
(g78
g59
NtRp3016
(dp3017
g62
(dp3018
sg71
g3003
sg64
(lp3019
g57
(g58
g59
NtRp3020
(dp3021
g62
(dp3022
g70
I3
ssg71
g3016
sg64
(lp3023
g1250
asbasbasbag57
(g73
g59
NtRp3024
(dp3025
g62
(dp3026
sg71
g2894
sg64
(lp3027
g57
(g78
g59
NtRp3028
(dp3029
g62
(dp3030
g82
g83
ssg71
g3024
sg64
(lp3031
S'HTTP_CACHE_CONTROL'
p3032
asbag57
(g78
g59
NtRp3033
(dp3034
g62
(dp3035
g89
g90
ssg71
g3024
sg64
(lp3036
S':'
asbag57
(g78
g59
NtRp3037
(dp3038
g62
(dp3039
sg71
g3024
sg64
(lp3040
g57
(g58
g59
NtRp3041
(dp3042
g62
(dp3043
g70
I3
ssg71
g3037
sg64
(lp3044
g1272
asbasbasbag57
(g73
g59
NtRp3045
(dp3046
g62
(dp3047
sg71
g2894
sg64
(lp3048
g57
(g78
g59
NtRp3049
(dp3050
g62
(dp3051
g82
g83
ssg71
g3045
sg64
(lp3052
S'HTTP_CONNECTION'
p3053
asbag57
(g78
g59
NtRp3054
(dp3055
g62
(dp3056
g89
g90
ssg71
g3045
sg64
(lp3057
S':'
asbag57
(g78
g59
NtRp3058
(dp3059
g62
(dp3060
sg71
g3045
sg64
(lp3061
g57
(g58
g59
NtRp3062
(dp3063
g62
(dp3064
g70
I3
ssg71
g3058
sg64
(lp3065
g1294
asbasbasbag57
(g73
g59
NtRp3066
(dp3067
g62
(dp3068
sg71
g2894
sg64
(lp3069
g57
(g78
g59
NtRp3070
(dp3071
g62
(dp3072
g82
g83
ssg71
g3066
sg64
(lp3073
S'HTTP_COOKIE'
p3074
asbag57
(g78
g59
NtRp3075
(dp3076
g62
(dp3077
g89
g90
ssg71
g3066
sg64
(lp3078
S':'
asbag57
(g78
g59
NtRp3079
(dp3080
g62
(dp3081
sg71
g3066
sg64
(lp3082
g57
(g58
g59
NtRp3083
(dp3084
g62
(dp3085
g70
I3
ssg71
g3079
sg64
(lp3086
g1316
asbasbasbag57
(g73
g59
NtRp3087
(dp3088
g62
(dp3089
sg71
g2894
sg64
(lp3090
g57
(g78
g59
NtRp3091
(dp3092
g62
(dp3093
g82
g83
ssg71
g3087
sg64
(lp3094
S'HTTP_HOST'
p3095
asbag57
(g78
g59
NtRp3096
(dp3097
g62
(dp3098
g89
g90
ssg71
g3087
sg64
(lp3099
S':'
asbag57
(g78
g59
NtRp3100
(dp3101
g62
(dp3102
sg71
g3087
sg64
(lp3103
g57
(g58
g59
NtRp3104
(dp3105
g62
(dp3106
g70
I3
ssg71
g3100
sg64
(lp3107
g1338
asbasbasbag57
(g73
g59
NtRp3108
(dp3109
g62
(dp3110
sg71
g2894
sg64
(lp3111
g57
(g78
g59
NtRp3112
(dp3113
g62
(dp3114
g82
g83
ssg71
g3108
sg64
(lp3115
S'HTTP_USER_AGENT'
p3116
asbag57
(g78
g59
NtRp3117
(dp3118
g62
(dp3119
g89
g90
ssg71
g3108
sg64
(lp3120
S':'
asbag57
(g78
g59
NtRp3121
(dp3122
g62
(dp3123
sg71
g3108
sg64
(lp3124
g57
(g58
g59
NtRp3125
(dp3126
g62
(dp3127
g70
I3
ssg71
g3121
sg64
(lp3128
g1360
asbasbasbag57
(g73
g59
NtRp3129
(dp3130
g62
(dp3131
sg71
g2894
sg64
(lp3132
g57
(g78
g59
NtRp3133
(dp3134
g62
(dp3135
g82
g83
ssg71
g3129
sg64
(lp3136
S'PATH_INFO'
p3137
asbag57
(g78
g59
NtRp3138
(dp3139
g62
(dp3140
g89
g90
ssg71
g3129
sg64
(lp3141
S':'
asbag57
(g78
g59
NtRp3142
(dp3143
g62
(dp3144
sg71
g3129
sg64
(lp3145
g57
(g58
g59
NtRp3146
(dp3147
g62
(dp3148
g70
I3
ssg71
g3142
sg64
(lp3149
g1666
asbasbasbag57
(g73
g59
NtRp3150
(dp3151
g62
(dp3152
sg71
g2894
sg64
(lp3153
g57
(g78
g59
NtRp3154
(dp3155
g62
(dp3156
g82
g83
ssg71
g3150
sg64
(lp3157
S'PATH_TRANSLATED'
p3158
asbag57
(g78
g59
NtRp3159
(dp3160
g62
(dp3161
g89
g90
ssg71
g3150
sg64
(lp3162
S':'
asbag57
(g78
g59
NtRp3163
(dp3164
g62
(dp3165
sg71
g3150
sg64
(lp3166
g57
(g58
g59
NtRp3167
(dp3168
g62
(dp3169
g70
I3
ssg71
g3163
sg64
(lp3170
g1688
asbasbasbag57
(g73
g59
NtRp3171
(dp3172
g62
(dp3173
sg71
g2894
sg64
(lp3174
g57
(g78
g59
NtRp3175
(dp3176
g62
(dp3177
g82
g83
ssg71
g3171
sg64
(lp3178
S'QUERY_STRING'
p3179
asbag57
(g78
g59
NtRp3180
(dp3181
g62
(dp3182
g89
g90
ssg71
g3171
sg64
(lp3183
S':'
asbag57
(g78
g59
NtRp3184
(dp3185
g62
(dp3186
sg71
g3171
sg64
(lp3187
g57
(g58
g59
NtRp3188
(dp3189
g62
(dp3190
g70
I3
ssg71
g3184
sg64
(lp3191
S''
asbasbasbag57
(g73
g59
NtRp3192
(dp3193
g62
(dp3194
sg71
g2894
sg64
(lp3195
g57
(g78
g59
NtRp3196
(dp3197
g62
(dp3198
g82
g83
ssg71
g3192
sg64
(lp3199
S'REMOTE_ADDR'
p3200
asbag57
(g78
g59
NtRp3201
(dp3202
g62
(dp3203
g89
g90
ssg71
g3192
sg64
(lp3204
S':'
asbag57
(g78
g59
NtRp3205
(dp3206
g62
(dp3207
sg71
g3192
sg64
(lp3208
g57
(g58
g59
NtRp3209
(dp3210
g62
(dp3211
g70
I3
ssg71
g3205
sg64
(lp3212
g190
asbasbasbag57
(g73
g59
NtRp3213
(dp3214
g62
(dp3215
sg71
g2894
sg64
(lp3216
g57
(g78
g59
NtRp3217
(dp3218
g62
(dp3219
g82
g83
ssg71
g3213
sg64
(lp3220
S'REMOTE_PORT'
p3221
asbag57
(g78
g59
NtRp3222
(dp3223
g62
(dp3224
g89
g90
ssg71
g3213
sg64
(lp3225
S':'
asbag57
(g78
g59
NtRp3226
(dp3227
g62
(dp3228
sg71
g3213
sg64
(lp3229
g57
(g58
g59
NtRp3230
(dp3231
g62
(dp3232
g70
I3
ssg71
g3226
sg64
(lp3233
g1752
asbasbasbag57
(g73
g59
NtRp3234
(dp3235
g62
(dp3236
sg71
g2894
sg64
(lp3237
g57
(g78
g59
NtRp3238
(dp3239
g62
(dp3240
g82
g83
ssg71
g3234
sg64
(lp3241
S'REQUEST_METHOD'
p3242
asbag57
(g78
g59
NtRp3243
(dp3244
g62
(dp3245
g89
g90
ssg71
g3234
sg64
(lp3246
S':'
asbag57
(g78
g59
NtRp3247
(dp3248
g62
(dp3249
sg71
g3234
sg64
(lp3250
g57
(g58
g59
NtRp3251
(dp3252
g62
(dp3253
g70
I3
ssg71
g3247
sg64
(lp3254
g1774
asbasbasbag57
(g73
g59
NtRp3255
(dp3256
g62
(dp3257
sg71
g2894
sg64
(lp3258
g57
(g78
g59
NtRp3259
(dp3260
g62
(dp3261
g82
g83
ssg71
g3255
sg64
(lp3262
S'REQUEST_URI'
p3263
asbag57
(g78
g59
NtRp3264
(dp3265
g62
(dp3266
g89
g90
ssg71
g3255
sg64
(lp3267
S':'
asbag57
(g78
g59
NtRp3268
(dp3269
g62
(dp3270
sg71
g3255
sg64
(lp3271
g57
(g58
g59
NtRp3272
(dp3273
g62
(dp3274
g70
I3
ssg71
g3268
sg64
(lp3275
g1796
asbasbasbag57
(g73
g59
NtRp3276
(dp3277
g62
(dp3278
sg71
g2894
sg64
(lp3279
g57
(g78
g59
NtRp3280
(dp3281
g62
(dp3282
g82
g83
ssg71
g3276
sg64
(lp3283
S'SCRIPT_FILENAME'
p3284
asbag57
(g78
g59
NtRp3285
(dp3286
g62
(dp3287
g89
g90
ssg71
g3276
sg64
(lp3288
S':'
asbag57
(g78
g59
NtRp3289
(dp3290
g62
(dp3291
sg71
g3276
sg64
(lp3292
g57
(g58
g59
NtRp3293
(dp3294
g62
(dp3295
g70
I3
ssg71
g3289
sg64
(lp3296
g1818
asbasbasbag57
(g73
g59
NtRp3297
(dp3298
g62
(dp3299
sg71
g2894
sg64
(lp3300
g57
(g78
g59
NtRp3301
(dp3302
g62
(dp3303
g82
g83
ssg71
g3297
sg64
(lp3304
S'SCRIPT_NAME'
p3305
asbag57
(g78
g59
NtRp3306
(dp3307
g62
(dp3308
g89
g90
ssg71
g3297
sg64
(lp3309
S':'
asbag57
(g78
g59
NtRp3310
(dp3311
g62
(dp3312
sg71
g3297
sg64
(lp3313
g57
(g58
g59
NtRp3314
(dp3315
g62
(dp3316
g70
I3
ssg71
g3310
sg64
(lp3317
S''
asbasbasbag57
(g73
g59
NtRp3318
(dp3319
g62
(dp3320
sg71
g2894
sg64
(lp3321
g57
(g78
g59
NtRp3322
(dp3323
g62
(dp3324
g82
g83
ssg71
g3318
sg64
(lp3325
S'SERVER_ADDR'
p3326
asbag57
(g78
g59
NtRp3327
(dp3328
g62
(dp3329
g89
g90
ssg71
g3318
sg64
(lp3330
S':'
asbag57
(g78
g59
NtRp3331
(dp3332
g62
(dp3333
sg71
g3318
sg64
(lp3334
g57
(g58
g59
NtRp3335
(dp3336
g62
(dp3337
g70
I3
ssg71
g3331
sg64
(lp3338
g1861
asbasbasbag57
(g73
g59
NtRp3339
(dp3340
g62
(dp3341
sg71
g2894
sg64
(lp3342
g57
(g78
g59
NtRp3343
(dp3344
g62
(dp3345
g82
g83
ssg71
g3339
sg64
(lp3346
S'SERVER_ADMIN'
p3347
asbag57
(g78
g59
NtRp3348
(dp3349
g62
(dp3350
g89
g90
ssg71
g3339
sg64
(lp3351
S':'
asbag57
(g78
g59
NtRp3352
(dp3353
g62
(dp3354
sg71
g3339
sg64
(lp3355
g57
(g58
g59
NtRp3356
(dp3357
g62
(dp3358
g70
I3
ssg71
g3352
sg64
(lp3359
g1883
asbasbasbag57
(g73
g59
NtRp3360
(dp3361
g62
(dp3362
sg71
g2894
sg64
(lp3363
g57
(g78
g59
NtRp3364
(dp3365
g62
(dp3366
g82
g83
ssg71
g3360
sg64
(lp3367
S'SERVER_NAME'
p3368
asbag57
(g78
g59
NtRp3369
(dp3370
g62
(dp3371
g89
g90
ssg71
g3360
sg64
(lp3372
S':'
asbag57
(g78
g59
NtRp3373
(dp3374
g62
(dp3375
sg71
g3360
sg64
(lp3376
g57
(g58
g59
NtRp3377
(dp3378
g62
(dp3379
g70
I3
ssg71
g3373
sg64
(lp3380
g1905
asbasbasbag57
(g73
g59
NtRp3381
(dp3382
g62
(dp3383
sg71
g2894
sg64
(lp3384
g57
(g78
g59
NtRp3385
(dp3386
g62
(dp3387
g82
g83
ssg71
g3381
sg64
(lp3388
S'SERVER_PORT'
p3389
asbag57
(g78
g59
NtRp3390
(dp3391
g62
(dp3392
g89
g90
ssg71
g3381
sg64
(lp3393
S':'
asbag57
(g78
g59
NtRp3394
(dp3395
g62
(dp3396
sg71
g3381
sg64
(lp3397
g57
(g58
g59
NtRp3398
(dp3399
g62
(dp3400
g70
I3
ssg71
g3394
sg64
(lp3401
g1927
asbasbasbag57
(g73
g59
NtRp3402
(dp3403
g62
(dp3404
sg71
g2894
sg64
(lp3405
g57
(g78
g59
NtRp3406
(dp3407
g62
(dp3408
g82
g83
ssg71
g3402
sg64
(lp3409
S'SERVER_PROTOCOL'
p3410
asbag57
(g78
g59
NtRp3411
(dp3412
g62
(dp3413
g89
g90
ssg71
g3402
sg64
(lp3414
S':'
asbag57
(g78
g59
NtRp3415
(dp3416
g62
(dp3417
sg71
g3402
sg64
(lp3418
g57
(g58
g59
NtRp3419
(dp3420
g62
(dp3421
g70
I3
ssg71
g3415
sg64
(lp3422
g1949
asbasbasbag57
(g73
g59
NtRp3423
(dp3424
g62
(dp3425
sg71
g2894
sg64
(lp3426
g57
(g78
g59
NtRp3427
(dp3428
g62
(dp3429
g82
g83
ssg71
g3423
sg64
(lp3430
S'SERVER_SIGNATURE'
p3431
asbag57
(g78
g59
NtRp3432
(dp3433
g62
(dp3434
g89
g90
ssg71
g3423
sg64
(lp3435
S':'
asbag57
(g78
g59
NtRp3436
(dp3437
g62
(dp3438
sg71
g3423
sg64
(lp3439
g57
(g58
g59
NtRp3440
(dp3441
g62
(dp3442
g70
I3
ssg71
g3436
sg64
(lp3443
S''
asbasbasbag57
(g73
g59
NtRp3444
(dp3445
g62
(dp3446
sg71
g2894
sg64
(lp3447
g57
(g78
g59
NtRp3448
(dp3449
g62
(dp3450
g82
g83
ssg71
g3444
sg64
(lp3451
S'SERVER_SOFTWARE'
p3452
asbag57
(g78
g59
NtRp3453
(dp3454
g62
(dp3455
g89
g90
ssg71
g3444
sg64
(lp3456
S':'
asbag57
(g78
g59
NtRp3457
(dp3458
g62
(dp3459
sg71
g3444
sg64
(lp3460
g57
(g58
g59
NtRp3461
(dp3462
g62
(dp3463
g70
I3
ssg71
g3457
sg64
(lp3464
g1992
asbasbasbag57
(g73
g59
NtRp3465
(dp3466
g62
(dp3467
sg71
g2894
sg64
(lp3468
g57
(g78
g59
NtRp3469
(dp3470
g62
(dp3471
g82
g83
ssg71
g3465
sg64
(lp3472
S'mod_wsgi.application_group'
p3473
asbag57
(g78
g59
NtRp3474
(dp3475
g62
(dp3476
g89
g90
ssg71
g3465
sg64
(lp3477
S':'
asbag57
(g78
g59
NtRp3478
(dp3479
g62
(dp3480
sg71
g3465
sg64
(lp3481
g57
(g58
g59
NtRp3482
(dp3483
g62
(dp3484
g70
I3
ssg71
g3478
sg64
(lp3485
g1424
asbasbasbag57
(g73
g59
NtRp3486
(dp3487
g62
(dp3488
sg71
g2894
sg64
(lp3489
g57
(g78
g59
NtRp3490
(dp3491
g62
(dp3492
g82
g83
ssg71
g3486
sg64
(lp3493
S'mod_wsgi.callable_object'
p3494
asbag57
(g78
g59
NtRp3495
(dp3496
g62
(dp3497
g89
g90
ssg71
g3486
sg64
(lp3498
S':'
asbag57
(g78
g59
NtRp3499
(dp3500
g62
(dp3501
sg71
g3486
sg64
(lp3502
g57
(g58
g59
NtRp3503
(dp3504
g62
(dp3505
g70
I3
ssg71
g3499
sg64
(lp3506
g1446
asbasbasbag57
(g73
g59
NtRp3507
(dp3508
g62
(dp3509
sg71
g2894
sg64
(lp3510
g57
(g78
g59
NtRp3511
(dp3512
g62
(dp3513
g82
g83
ssg71
g3507
sg64
(lp3514
S'mod_wsgi.handler_script'
p3515
asbag57
(g78
g59
NtRp3516
(dp3517
g62
(dp3518
g89
g90
ssg71
g3507
sg64
(lp3519
S':'
asbag57
(g78
g59
NtRp3520
(dp3521
g62
(dp3522
sg71
g3507
sg64
(lp3523
g57
(g58
g59
NtRp3524
(dp3525
g62
(dp3526
g70
I3
ssg71
g3520
sg64
(lp3527
S''
asbasbasbag57
(g73
g59
NtRp3528
(dp3529
g62
(dp3530
sg71
g2894
sg64
(lp3531
g57
(g78
g59
NtRp3532
(dp3533
g62
(dp3534
g82
g83
ssg71
g3528
sg64
(lp3535
S'mod_wsgi.input_chunked'
p3536
asbag57
(g78
g59
NtRp3537
(dp3538
g62
(dp3539
g89
g90
ssg71
g3528
sg64
(lp3540
S':'
asbag57
(g78
g59
NtRp3541
(dp3542
g62
(dp3543
sg71
g3528
sg64
(lp3544
g57
(g58
g59
NtRp3545
(dp3546
g62
(dp3547
g70
I3
ssg71
g3541
sg64
(lp3548
S'0'
asbasbasbag57
(g73
g59
NtRp3549
(dp3550
g62
(dp3551
sg71
g2894
sg64
(lp3552
g57
(g78
g59
NtRp3553
(dp3554
g62
(dp3555
g82
g83
ssg71
g3549
sg64
(lp3556
S'mod_wsgi.listener_host'
p3557
asbag57
(g78
g59
NtRp3558
(dp3559
g62
(dp3560
g89
g90
ssg71
g3549
sg64
(lp3561
S':'
asbag57
(g78
g59
NtRp3562
(dp3563
g62
(dp3564
sg71
g3549
sg64
(lp3565
g57
(g58
g59
NtRp3566
(dp3567
g62
(dp3568
g70
I3
ssg71
g3562
sg64
(lp3569
S''
asbasbasbag57
(g73
g59
NtRp3570
(dp3571
g62
(dp3572
sg71
g2894
sg64
(lp3573
g57
(g78
g59
NtRp3574
(dp3575
g62
(dp3576
g82
g83
ssg71
g3570
sg64
(lp3577
S'mod_wsgi.listener_port'
p3578
asbag57
(g78
g59
NtRp3579
(dp3580
g62
(dp3581
g89
g90
ssg71
g3570
sg64
(lp3582
S':'
asbag57
(g78
g59
NtRp3583
(dp3584
g62
(dp3585
sg71
g3570
sg64
(lp3586
g57
(g58
g59
NtRp3587
(dp3588
g62
(dp3589
g70
I3
ssg71
g3583
sg64
(lp3590
g1531
asbasbasbag57
(g73
g59
NtRp3591
(dp3592
g62
(dp3593
sg71
g2894
sg64
(lp3594
g57
(g78
g59
NtRp3595
(dp3596
g62
(dp3597
g82
g83
ssg71
g3591
sg64
(lp3598
S'mod_wsgi.process_group'
p3599
asbag57
(g78
g59
NtRp3600
(dp3601
g62
(dp3602
g89
g90
ssg71
g3591
sg64
(lp3603
S':'
asbag57
(g78
g59
NtRp3604
(dp3605
g62
(dp3606
sg71
g3591
sg64
(lp3607
g57
(g58
g59
NtRp3608
(dp3609
g62
(dp3610
g70
I3
ssg71
g3604
sg64
(lp3611
S''
asbasbasbag57
(g73
g59
NtRp3612
(dp3613
g62
(dp3614
sg71
g2894
sg64
(lp3615
g57
(g78
g59
NtRp3616
(dp3617
g62
(dp3618
g82
g83
ssg71
g3612
sg64
(lp3619
S'mod_wsgi.request_handler'
p3620
asbag57
(g78
g59
NtRp3621
(dp3622
g62
(dp3623
g89
g90
ssg71
g3612
sg64
(lp3624
S':'
asbag57
(g78
g59
NtRp3625
(dp3626
g62
(dp3627
sg71
g3612
sg64
(lp3628
g57
(g58
g59
NtRp3629
(dp3630
g62
(dp3631
g70
I3
ssg71
g3625
sg64
(lp3632
g1574
asbasbasbag57
(g73
g59
NtRp3633
(dp3634
g62
(dp3635
sg71
g2894
sg64
(lp3636
g57
(g78
g59
NtRp3637
(dp3638
g62
(dp3639
g82
g83
ssg71
g3633
sg64
(lp3640
S'mod_wsgi.script_reloading'
p3641
asbag57
(g78
g59
NtRp3642
(dp3643
g62
(dp3644
g89
g90
ssg71
g3633
sg64
(lp3645
S':'
asbag57
(g78
g59
NtRp3646
(dp3647
g62
(dp3648
sg71
g3633
sg64
(lp3649
g57
(g58
g59
NtRp3650
(dp3651
g62
(dp3652
g70
I3
ssg71
g3646
sg64
(lp3653
S'1'
asbasbasbag57
(g73
g59
NtRp3654
(dp3655
g62
(dp3656
sg71
g2894
sg64
(lp3657
g57
(g78
g59
NtRp3658
(dp3659
g62
(dp3660
g82
g83
ssg71
g3654
sg64
(lp3661
S'mod_wsgi.version'
p3662
asbag57
(g78
g59
NtRp3663
(dp3664
g62
(dp3665
g89
g90
ssg71
g3654
sg64
(lp3666
S':'
asbag57
(g78
g59
NtRp3667
(dp3668
g62
(dp3669
sg71
g3654
sg64
(lp3670
g57
(g58
g59
NtRp3671
(dp3672
g62
(dp3673
g70
I3
ssg71
g3667
sg64
(lp3674
g57
(g66
g59
NtRp3675
(dp3676
g62
(dp3677
g70
I2
ssg71
Nsg64
(lp3678
g57
(g73
g59
NtRp3679
(dp3680
g62
(dp3681
sg71
g3675
sg64
(lp3682
g57
(g78
g59
NtRp3683
(dp3684
g62
(dp3685
sg71
g3679
sg64
(lp3686
g57
(g58
g59
NtRp3687
(dp3688
g62
(dp3689
g70
I2
ssg71
g3683
sg64
(lp3690
S'3'
asbasbasbag57
(g73
g59
NtRp3691
(dp3692
g62
(dp3693
sg71
g3675
sg64
(lp3694
g57
(g78
g59
NtRp3695
(dp3696
g62
(dp3697
sg71
g3691
sg64
(lp3698
g57
(g58
g59
NtRp3699
(dp3700
g62
(dp3701
g70
I2
ssg71
g3695
sg64
(lp3702
S'3'
asbasbasbasbasbasbasbag57
(g73
g59
NtRp3703
(dp3704
g62
(dp3705
sg71
g2894
sg64
(lp3706
g57
(g78
g59
NtRp3707
(dp3708
g62
(dp3709
g82
g83
ssg71
g3703
sg64
(lp3710
S'wsgi.errors'
p3711
asbag57
(g78
g59
NtRp3712
(dp3713
g62
(dp3714
g89
g90
ssg71
g3703
sg64
(lp3715
S':'
asbag57
(g78
g59
NtRp3716
(dp3717
g62
(dp3718
sg71
g3703
sg64
(lp3719
g57
(g58
g59
NtRp3720
(dp3721
g62
(dp3722
g70
I3
ssg71
g3716
sg64
(lp3723
S'<mod_wsgi.Log object at 0x11056e530>'
p3724
asbasbasbag57
(g73
g59
NtRp3725
(dp3726
g62
(dp3727
sg71
g2894
sg64
(lp3728
g57
(g78
g59
NtRp3729
(dp3730
g62
(dp3731
g82
g83
ssg71
g3725
sg64
(lp3732
S'wsgi.file_wrapper'
p3733
asbag57
(g78
g59
NtRp3734
(dp3735
g62
(dp3736
g89
g90
ssg71
g3725
sg64
(lp3737
S':'
asbag57
(g78
g59
NtRp3738
(dp3739
g62
(dp3740
sg71
g3725
sg64
(lp3741
g57
(g58
g59
NtRp3742
(dp3743
g62
(dp3744
g70
I3
ssg71
g3738
sg64
(lp3745
S'<built-in method file_wrapper of mod_wsgi.Adapter object at 0x10fdb2d50>'
p3746
asbasbasbag57
(g73
g59
NtRp3747
(dp3748
g62
(dp3749
sg71
g2894
sg64
(lp3750
g57
(g78
g59
NtRp3751
(dp3752
g62
(dp3753
g82
g83
ssg71
g3747
sg64
(lp3754
S'wsgi.input'
p3755
asbag57
(g78
g59
NtRp3756
(dp3757
g62
(dp3758
g89
g90
ssg71
g3747
sg64
(lp3759
S':'
asbag57
(g78
g59
NtRp3760
(dp3761
g62
(dp3762
sg71
g3747
sg64
(lp3763
g57
(g58
g59
NtRp3764
(dp3765
g62
(dp3766
g70
I3
ssg71
g3760
sg64
(lp3767
S'<cStringIO.StringO object at 0x110643810>'
p3768
asbasbasbag57
(g73
g59
NtRp3769
(dp3770
g62
(dp3771
sg71
g2894
sg64
(lp3772
g57
(g78
g59
NtRp3773
(dp3774
g62
(dp3775
g82
g83
ssg71
g3769
sg64
(lp3776
S'wsgi.multiprocess'
p3777
asbag57
(g78
g59
NtRp3778
(dp3779
g62
(dp3780
g89
g90
ssg71
g3769
sg64
(lp3781
S':'
asbag57
(g78
g59
NtRp3782
(dp3783
g62
(dp3784
sg71
g3769
sg64
(lp3785
g57
(g58
g59
NtRp3786
(dp3787
g62
(dp3788
g70
I3
ssg71
g3782
sg64
(lp3789
g2189
asbasbasbag57
(g73
g59
NtRp3790
(dp3791
g62
(dp3792
sg71
g2894
sg64
(lp3793
g57
(g78
g59
NtRp3794
(dp3795
g62
(dp3796
g82
g83
ssg71
g3790
sg64
(lp3797
S'wsgi.multithread'
p3798
asbag57
(g78
g59
NtRp3799
(dp3800
g62
(dp3801
g89
g90
ssg71
g3790
sg64
(lp3802
S':'
asbag57
(g78
g59
NtRp3803
(dp3804
g62
(dp3805
sg71
g3790
sg64
(lp3806
g57
(g58
g59
NtRp3807
(dp3808
g62
(dp3809
g70
I3
ssg71
g3803
sg64
(lp3810
g100
asbasbasbag57
(g73
g59
NtRp3811
(dp3812
g62
(dp3813
sg71
g2894
sg64
(lp3814
g57
(g78
g59
NtRp3815
(dp3816
g62
(dp3817
g82
g83
ssg71
g3811
sg64
(lp3818
S'wsgi.run_once'
p3819
asbag57
(g78
g59
NtRp3820
(dp3821
g62
(dp3822
g89
g90
ssg71
g3811
sg64
(lp3823
S':'
asbag57
(g78
g59
NtRp3824
(dp3825
g62
(dp3826
sg71
g3811
sg64
(lp3827
g57
(g58
g59
NtRp3828
(dp3829
g62
(dp3830
g70
I3
ssg71
g3824
sg64
(lp3831
g100
asbasbasbag57
(g73
g59
NtRp3832
(dp3833
g62
(dp3834
sg71
g2894
sg64
(lp3835
g57
(g78
g59
NtRp3836
(dp3837
g62
(dp3838
g82
g83
ssg71
g3832
sg64
(lp3839
S'wsgi.url_scheme'
p3840
asbag57
(g78
g59
NtRp3841
(dp3842
g62
(dp3843
g89
g90
ssg71
g3832
sg64
(lp3844
S':'
asbag57
(g78
g59
NtRp3845
(dp3846
g62
(dp3847
sg71
g3832
sg64
(lp3848
g57
(g58
g59
NtRp3849
(dp3850
g62
(dp3851
g70
I3
ssg71
g3845
sg64
(lp3852
g2253
asbasbasbag57
(g73
g59
NtRp3853
(dp3854
g62
(dp3855
sg71
g2894
sg64
(lp3856
g57
(g78
g59
NtRp3857
(dp3858
g62
(dp3859
g82
g83
ssg71
g3853
sg64
(lp3860
S'wsgi.version'
p3861
asbag57
(g78
g59
NtRp3862
(dp3863
g62
(dp3864
g89
g90
ssg71
g3853
sg64
(lp3865
S':'
asbag57
(g78
g59
NtRp3866
(dp3867
g62
(dp3868
sg71
g3853
sg64
(lp3869
g57
(g58
g59
NtRp3870
(dp3871
g62
(dp3872
g70
I3
ssg71
g3866
sg64
(lp3873
S'1'
asbasbasbasbasbasbasbasbasbasbasbasbasbsS'frames'
p3874
(lp3875
(dp3876
S'file'
p3877
S'/Users/emir/Documents/beardcode/web2py/gluon/restricted.py'
p3878
sS'dump'
p3879
(dp3880
S'environment'
p3881
S"{'A': <class 'gluon.html.A'>, 'Auth': <class 'gluon.tools.Auth'>, 'B': <class 'gluon.html.B'>, 'BEAUTIFY': <class 'gluon.html.BEAUTIFY'>, 'BODY': <class 'gluon.html.BODY'>, 'BR': <class 'gluon.html.BR'>, 'BUTTON': <class 'gluon.html.BUTTON'>, 'CAT': <class 'gluon.html.CAT'>, 'CENTER': <class 'gluon.html.CENTER'>, 'CLEANUP': <class 'gluon.validators.CLEANUP'>, ...}"
p3882
sS'ccode'
p3883
S'<code object <module> at 0x110651dc8, file "/Use...ations/contador/controllers/default.py", line 12>'
p3884
ssS'lnum'
p3885
I205
sS'lines'
p3886
(dp3887
I200
S'    try:'
p3888
sI201
S'        if type(code) == types.CodeType:'
p3889
sI202
S'            ccode = code'
p3890
sI203
S'        else:'
p3891
sI204
S'            ccode = compile2(code,layer)'
p3892
sI205
S'        exec ccode in environment'
p3893
sI206
S'    except HTTP:'
p3894
sI207
S'        raise'
p3895
sI208
S'    except RestrictedError:'
p3896
sI209
S'        # do not encapsulate (obfuscate) the original RestrictedError'
p3897
ssS'call'
p3898
S"(code='# -*- coding: utf-8 -*-\\n# this file is released ...r,ti=ti)\\n\\nresponse._vars=response._caller(index)\\n', environment={'A': <class 'gluon.html.A'>, 'Auth': <class 'gluon.tools.Auth'>, 'B': <class 'gluon.html.B'>, 'BEAUTIFY': <class 'gluon.html.BEAUTIFY'>, 'BODY': <class 'gluon.html.BODY'>, 'BR': <class 'gluon.html.BR'>, 'BUTTON': <class 'gluon.html.BUTTON'>, 'CAT': <class 'gluon.html.CAT'>, 'CENTER': <class 'gluon.html.CENTER'>, 'CLEANUP': <class 'gluon.validators.CLEANUP'>, ...}, layer='/Users/emir/Documents/beardcode/web2py/applications/contador/controllers/default.py')"
p3899
sS'func'
p3900
S'restricted'
p3901
sa(dp3902
g3877
S'/Users/emir/Documents/beardcode/web2py/applications/contador/controllers/default.py'
p3903
sg3879
(dp3904
sg3885
I21
sg3886
(dp3905
I10
S'#########################################################################'
p3906
sI11
S''
sI12
S"tit = 'Contador de visitas'"
p3907
sI13
S''
sI14
S'def index():'
p3908
sI15
S'    if not session.counter:'
p3909
sI16
S'        session.counter = 1'
p3910
sI17
S'    else:'
p3911
sI18
S'        session.counter += 1'
p3912
sI19
S'    return dict(nv=session.counter,ti=ti)'
p3913
ssg3898
S'()'
p3914
sg3900
S'<module>'
p3915
sa(dp3916
g3877
S'/Users/emir/Documents/beardcode/web2py/gluon/globals.py'
p3917
sg3879
(dp3918
S'self'
p3919
S'undefined'
p3920
sS'f'
S'<function index>'
p3921
ssg3885
I173
sg3886
(dp3922
I168
S'        self.menu = []             # used by the default view layout'
p3923
sI169
S'        self.files = []            # used by web2py_ajax.html'
p3924
sI170
S'        self.generic_patterns = [] # patterns to allow generic views'
p3925
sI171
S"        self.delimiters = ('{{','}}')"
p3926
sI172
S'        self._vars = None'
p3927
sI173
S'        self._caller = lambda f: f()'
p3928
sI174
S'        self._view_environment = None'
p3929
sI175
S'        self._custom_commit = None'
p3930
sI176
S'        self._custom_rollback = None'
p3931
sI177
S''
ssg3898
S'(f=<function index>)'
p3932
sg3900
S'<lambda>'
p3933
sa(dp3934
g3877
S'/Users/emir/Documents/beardcode/web2py/applications/contador/controllers/default.py'
p3935
sg3879
(dp3936
S'ti'
p3937
g3920
sS'global session'
p3938
S"<Storage {'counter': 5, '_Session__hash': '\\x04\\... {'version': '21.0.1180.57', 'name': 'Chrome'}}}>"
p3939
sS'nv'
p3940
g3920
sS'builtindict'
p3941
S"<type 'dict'>"
p3942
sS'session.counter'
p3943
S'5'
ssg3885
I19
sg3886
(dp3944
I10
S'#########################################################################'
p3945
sI11
S''
sI12
S"tit = 'Contador de visitas'"
p3946
sI13
S''
sI14
S'def index():'
p3947
sI15
S'    if not session.counter:'
p3948
sI16
S'        session.counter = 1'
p3949
sI17
S'    else:'
p3950
sI18
S'        session.counter += 1'
p3951
sI19
S'    return dict(nv=session.counter,ti=ti)'
p3952
ssg3898
S'()'
p3953
sg3900
S'index'
p3954
sasS'pyver'
p3955
S'Python 2.6.7: /usr/bin/python'
p3956
sS'session'
p3957
g57
(g58
g59
NtRp3958
(dp3959
g62
(dp3960
sg64
(lp3961
g57
(g66
g59
NtRp3962
(dp3963
g62
(dp3964
g70
I5
ssg71
Nsg64
(lp3965
g57
(g73
g59
NtRp3966
(dp3967
g62
(dp3968
sg71
g3962
sg64
(lp3969
g57
(g78
g59
NtRp3970
(dp3971
g62
(dp3972
g82
g83
ssg71
g3966
sg64
(lp3973
S'counter'
p3974
asbag57
(g78
g59
NtRp3975
(dp3976
g62
(dp3977
g89
g90
ssg71
g3966
sg64
(lp3978
S':'
asbag57
(g78
g59
NtRp3979
(dp3980
g62
(dp3981
sg71
g3966
sg64
(lp3982
g57
(g58
g59
NtRp3983
(dp3984
g62
(dp3985
g70
I5
ssg71
g3979
sg64
(lp3986
S'5'
asbasbasbasbasbsS'etype'
p3987
S"<type 'exceptions.NameError'>"
p3988
sS'date'
p3989
S'Fri Aug  3 10:51:58 2012'
p3990
sS'response'
p3991
g57
(g58
g59
NtRp3992
(dp3993
g62
(dp3994
sg64
(lp3995
g57
(g66
g59
NtRp3996
(dp3997
g62
(dp3998
g70
I5
ssg71
Nsg64
(lp3999
g57
(g73
g59
NtRp4000
(dp4001
g62
(dp4002
sg71
g3996
sg64
(lp4003
g57
(g78
g59
NtRp4004
(dp4005
g62
(dp4006
g82
g83
ssg71
g4000
sg64
(lp4007
g155
asbag57
(g78
g59
NtRp4008
(dp4009
g62
(dp4010
g89
g90
ssg71
g4000
sg64
(lp4011
S':'
asbag57
(g78
g59
NtRp4012
(dp4013
g62
(dp4014
sg71
g4000
sg64
(lp4015
g57
(g58
g59
NtRp4016
(dp4017
g62
(dp4018
g70
I5
ssg71
g4012
sg64
(lp4019
S'<cStringIO.StringO object at 0x1106438f0>'
p4020
asbasbasbag57
(g73
g59
NtRp4021
(dp4022
g62
(dp4023
sg71
g3996
sg64
(lp4024
g57
(g78
g59
NtRp4025
(dp4026
g62
(dp4027
g82
g83
ssg71
g4021
sg64
(lp4028
g221
asbag57
(g78
g59
NtRp4029
(dp4030
g62
(dp4031
g89
g90
ssg71
g4021
sg64
(lp4032
S':'
asbag57
(g78
g59
NtRp4033
(dp4034
g62
(dp4035
sg71
g4021
sg64
(lp4036
g57
(g58
g59
NtRp4037
(dp4038
g62
(dp4039
g70
I5
ssg71
g4033
sg64
(lp4040
g57
(g66
g59
NtRp4041
(dp4042
g62
(dp4043
g70
I4
ssg71
Nsg64
(lp4044
g57
(g73
g59
NtRp4045
(dp4046
g62
(dp4047
sg71
g4041
sg64
(lp4048
g57
(g78
g59
NtRp4049
(dp4050
g62
(dp4051
g82
g83
ssg71
g4045
sg64
(lp4052
S'session_id_contador'
p4053
asbag57
(g78
g59
NtRp4054
(dp4055
g62
(dp4056
g89
g90
ssg71
g4045
sg64
(lp4057
S':'
asbag57
(g78
g59
NtRp4058
(dp4059
g62
(dp4060
sg71
g4045
sg64
(lp4061
g57
(g58
g59
NtRp4062
(dp4063
g62
(dp4064
g70
I4
ssg71
g4058
sg64
(lp4065
g57
(g66
g59
NtRp4066
(dp4067
g62
(dp4068
g70
I3
ssg71
Nsg64
(lp4069
g57
(g73
g59
NtRp4070
(dp4071
g62
(dp4072
sg71
g4066
sg64
(lp4073
g57
(g78
g59
NtRp4074
(dp4075
g62
(dp4076
g82
g83
ssg71
g4070
sg64
(lp4077
g271
asbag57
(g78
g59
NtRp4078
(dp4079
g62
(dp4080
g89
g90
ssg71
g4070
sg64
(lp4081
S':'
asbag57
(g78
g59
NtRp4082
(dp4083
g62
(dp4084
sg71
g4070
sg64
(lp4085
g57
(g58
g59
NtRp4086
(dp4087
g62
(dp4088
g70
I3
ssg71
g4082
sg64
(lp4089
S''
asbasbasbag57
(g73
g59
NtRp4090
(dp4091
g62
(dp4092
sg71
g4066
sg64
(lp4093
g57
(g78
g59
NtRp4094
(dp4095
g62
(dp4096
g82
g83
ssg71
g4090
sg64
(lp4097
g292
asbag57
(g78
g59
NtRp4098
(dp4099
g62
(dp4100
g89
g90
ssg71
g4090
sg64
(lp4101
S':'
asbag57
(g78
g59
NtRp4102
(dp4103
g62
(dp4104
sg71
g4090
sg64
(lp4105
g57
(g58
g59
NtRp4106
(dp4107
g62
(dp4108
g70
I3
ssg71
g4102
sg64
(lp4109
S''
asbasbasbag57
(g73
g59
NtRp4110
(dp4111
g62
(dp4112
sg71
g4066
sg64
(lp4113
g57
(g78
g59
NtRp4114
(dp4115
g62
(dp4116
g82
g83
ssg71
g4110
sg64
(lp4117
g313
asbag57
(g78
g59
NtRp4118
(dp4119
g62
(dp4120
g89
g90
ssg71
g4110
sg64
(lp4121
S':'
asbag57
(g78
g59
NtRp4122
(dp4123
g62
(dp4124
sg71
g4110
sg64
(lp4125
g57
(g58
g59
NtRp4126
(dp4127
g62
(dp4128
g70
I3
ssg71
g4122
sg64
(lp4129
S''
asbasbasbag57
(g73
g59
NtRp4130
(dp4131
g62
(dp4132
sg71
g4066
sg64
(lp4133
g57
(g78
g59
NtRp4134
(dp4135
g62
(dp4136
g82
g83
ssg71
g4130
sg64
(lp4137
g334
asbag57
(g78
g59
NtRp4138
(dp4139
g62
(dp4140
g89
g90
ssg71
g4130
sg64
(lp4141
S':'
asbag57
(g78
g59
NtRp4142
(dp4143
g62
(dp4144
sg71
g4130
sg64
(lp4145
g57
(g58
g59
NtRp4146
(dp4147
g62
(dp4148
g70
I3
ssg71
g4142
sg64
(lp4149
S''
asbasbasbag57
(g73
g59
NtRp4150
(dp4151
g62
(dp4152
sg71
g4066
sg64
(lp4153
g57
(g78
g59
NtRp4154
(dp4155
g62
(dp4156
g82
g83
ssg71
g4150
sg64
(lp4157
g355
asbag57
(g78
g59
NtRp4158
(dp4159
g62
(dp4160
g89
g90
ssg71
g4150
sg64
(lp4161
S':'
asbag57
(g78
g59
NtRp4162
(dp4163
g62
(dp4164
sg71
g4150
sg64
(lp4165
g57
(g58
g59
NtRp4166
(dp4167
g62
(dp4168
g70
I3
ssg71
g4162
sg64
(lp4169
S''
asbasbasbag57
(g73
g59
NtRp4170
(dp4171
g62
(dp4172
sg71
g4066
sg64
(lp4173
g57
(g78
g59
NtRp4174
(dp4175
g62
(dp4176
g82
g83
ssg71
g4170
sg64
(lp4177
g376
asbag57
(g78
g59
NtRp4178
(dp4179
g62
(dp4180
g89
g90
ssg71
g4170
sg64
(lp4181
S':'
asbag57
(g78
g59
NtRp4182
(dp4183
g62
(dp4184
sg71
g4170
sg64
(lp4185
g57
(g58
g59
NtRp4186
(dp4187
g62
(dp4188
g70
I3
ssg71
g4182
sg64
(lp4189
S'/'
asbasbasbag57
(g73
g59
NtRp4190
(dp4191
g62
(dp4192
sg71
g4066
sg64
(lp4193
g57
(g78
g59
NtRp4194
(dp4195
g62
(dp4196
g82
g83
ssg71
g4190
sg64
(lp4197
g397
asbag57
(g78
g59
NtRp4198
(dp4199
g62
(dp4200
g89
g90
ssg71
g4190
sg64
(lp4201
S':'
asbag57
(g78
g59
NtRp4202
(dp4203
g62
(dp4204
sg71
g4190
sg64
(lp4205
g57
(g58
g59
NtRp4206
(dp4207
g62
(dp4208
g70
I3
ssg71
g4202
sg64
(lp4209
S''
asbasbasbag57
(g73
g59
NtRp4210
(dp4211
g62
(dp4212
sg71
g4066
sg64
(lp4213
g57
(g78
g59
NtRp4214
(dp4215
g62
(dp4216
g82
g83
ssg71
g4210
sg64
(lp4217
g418
asbag57
(g78
g59
NtRp4218
(dp4219
g62
(dp4220
g89
g90
ssg71
g4210
sg64
(lp4221
S':'
asbag57
(g78
g59
NtRp4222
(dp4223
g62
(dp4224
sg71
g4210
sg64
(lp4225
g57
(g58
g59
NtRp4226
(dp4227
g62
(dp4228
g70
I3
ssg71
g4222
sg64
(lp4229
S''
asbasbasbasbasbasbasbasbasbasbasbag57
(g73
g59
NtRp4230
(dp4231
g62
(dp4232
sg71
g3996
sg64
(lp4233
g57
(g78
g59
NtRp4234
(dp4235
g62
(dp4236
g82
g83
ssg71
g4230
sg64
(lp4237
S'delimiters'
p4238
asbag57
(g78
g59
NtRp4239
(dp4240
g62
(dp4241
g89
g90
ssg71
g4230
sg64
(lp4242
S':'
asbag57
(g78
g59
NtRp4243
(dp4244
g62
(dp4245
sg71
g4230
sg64
(lp4246
g57
(g58
g59
NtRp4247
(dp4248
g62
(dp4249
g70
I5
ssg71
g4243
sg64
(lp4250
g57
(g66
g59
NtRp4251
(dp4252
g62
(dp4253
g70
I4
ssg71
Nsg64
(lp4254
g57
(g73
g59
NtRp4255
(dp4256
g62
(dp4257
sg71
g4251
sg64
(lp4258
g57
(g78
g59
NtRp4259
(dp4260
g62
(dp4261
sg71
g4255
sg64
(lp4262
g57
(g58
g59
NtRp4263
(dp4264
g62
(dp4265
g70
I4
ssg71
g4259
sg64
(lp4266
S'{{'
p4267
asbasbasbag57
(g73
g59
NtRp4268
(dp4269
g62
(dp4270
sg71
g4251
sg64
(lp4271
g57
(g78
g59
NtRp4272
(dp4273
g62
(dp4274
sg71
g4268
sg64
(lp4275
g57
(g58
g59
NtRp4276
(dp4277
g62
(dp4278
g70
I4
ssg71
g4272
sg64
(lp4279
S'}}'
p4280
asbasbasbasbasbasbasbag57
(g73
g59
NtRp4281
(dp4282
g62
(dp4283
sg71
g3996
sg64
(lp4284
g57
(g78
g59
NtRp4285
(dp4286
g62
(dp4287
g82
g83
ssg71
g4281
sg64
(lp4288
S'files'
p4289
asbag57
(g78
g59
NtRp4290
(dp4291
g62
(dp4292
g89
g90
ssg71
g4281
sg64
(lp4293
S':'
asbag57
(g78
g59
NtRp4294
(dp4295
g62
(dp4296
sg71
g4281
sg64
(lp4297
g57
(g58
g59
NtRp4298
(dp4299
g62
(dp4300
g70
I5
ssg71
g4294
sg64
(lp4301
g57
(g66
g59
NtRp4302
(dp4303
g62
(dp4304
g70
I4
ssg71
Nsg64
(lp4305
sbasbasbasbag57
(g73
g59
NtRp4306
(dp4307
g62
(dp4308
sg71
g3996
sg64
(lp4309
g57
(g78
g59
NtRp4310
(dp4311
g62
(dp4312
g82
g83
ssg71
g4306
sg64
(lp4313
S'flash'
p4314
asbag57
(g78
g59
NtRp4315
(dp4316
g62
(dp4317
g89
g90
ssg71
g4306
sg64
(lp4318
S':'
asbag57
(g78
g59
NtRp4319
(dp4320
g62
(dp4321
sg71
g4306
sg64
(lp4322
g57
(g58
g59
NtRp4323
(dp4324
g62
(dp4325
g70
I5
ssg71
g4319
sg64
(lp4326
S''
asbasbasbag57
(g73
g59
NtRp4327
(dp4328
g62
(dp4329
sg71
g3996
sg64
(lp4330
g57
(g78
g59
NtRp4331
(dp4332
g62
(dp4333
g82
g83
ssg71
g4327
sg64
(lp4334
S'generic_patterns'
p4335
asbag57
(g78
g59
NtRp4336
(dp4337
g62
(dp4338
g89
g90
ssg71
g4327
sg64
(lp4339
S':'
asbag57
(g78
g59
NtRp4340
(dp4341
g62
(dp4342
sg71
g4327
sg64
(lp4343
g57
(g58
g59
NtRp4344
(dp4345
g62
(dp4346
g70
I5
ssg71
g4340
sg64
(lp4347
g57
(g66
g59
NtRp4348
(dp4349
g62
(dp4350
g70
I4
ssg71
Nsg64
(lp4351
g57
(g73
g59
NtRp4352
(dp4353
g62
(dp4354
sg71
g4348
sg64
(lp4355
g57
(g78
g59
NtRp4356
(dp4357
g62
(dp4358
sg71
g4352
sg64
(lp4359
g57
(g58
g59
NtRp4360
(dp4361
g62
(dp4362
g70
I4
ssg71
g4356
sg64
(lp4363
S'*'
asbasbasbasbasbasbasbag57
(g73
g59
NtRp4364
(dp4365
g62
(dp4366
sg71
g3996
sg64
(lp4367
g57
(g78
g59
NtRp4368
(dp4369
g62
(dp4370
g82
g83
ssg71
g4364
sg64
(lp4371
S'headers'
p4372
asbag57
(g78
g59
NtRp4373
(dp4374
g62
(dp4375
g89
g90
ssg71
g4364
sg64
(lp4376
S':'
asbag57
(g78
g59
NtRp4377
(dp4378
g62
(dp4379
sg71
g4364
sg64
(lp4380
g57
(g58
g59
NtRp4381
(dp4382
g62
(dp4383
g70
I5
ssg71
g4377
sg64
(lp4384
g57
(g66
g59
NtRp4385
(dp4386
g62
(dp4387
g70
I4
ssg71
Nsg64
(lp4388
g57
(g73
g59
NtRp4389
(dp4390
g62
(dp4391
sg71
g4385
sg64
(lp4392
g57
(g78
g59
NtRp4393
(dp4394
g62
(dp4395
g82
g83
ssg71
g4389
sg64
(lp4396
S'Cache-Control'
p4397
asbag57
(g78
g59
NtRp4398
(dp4399
g62
(dp4400
g89
g90
ssg71
g4389
sg64
(lp4401
S':'
asbag57
(g78
g59
NtRp4402
(dp4403
g62
(dp4404
sg71
g4389
sg64
(lp4405
g57
(g58
g59
NtRp4406
(dp4407
g62
(dp4408
g70
I4
ssg71
g4402
sg64
(lp4409
S'no-store, no-cache, must-revalidate, post-check=0, pre-check=0'
p4410
asbasbasbag57
(g73
g59
NtRp4411
(dp4412
g62
(dp4413
sg71
g4385
sg64
(lp4414
g57
(g78
g59
NtRp4415
(dp4416
g62
(dp4417
g82
g83
ssg71
g4411
sg64
(lp4418
S'Content-Type'
p4419
asbag57
(g78
g59
NtRp4420
(dp4421
g62
(dp4422
g89
g90
ssg71
g4411
sg64
(lp4423
S':'
asbag57
(g78
g59
NtRp4424
(dp4425
g62
(dp4426
sg71
g4411
sg64
(lp4427
g57
(g58
g59
NtRp4428
(dp4429
g62
(dp4430
g70
I4
ssg71
g4424
sg64
(lp4431
S'text/html; charset=utf-8'
p4432
asbasbasbag57
(g73
g59
NtRp4433
(dp4434
g62
(dp4435
sg71
g4385
sg64
(lp4436
g57
(g78
g59
NtRp4437
(dp4438
g62
(dp4439
g82
g83
ssg71
g4433
sg64
(lp4440
S'Expires'
p4441
asbag57
(g78
g59
NtRp4442
(dp4443
g62
(dp4444
g89
g90
ssg71
g4433
sg64
(lp4445
S':'
asbag57
(g78
g59
NtRp4446
(dp4447
g62
(dp4448
sg71
g4433
sg64
(lp4449
g57
(g58
g59
NtRp4450
(dp4451
g62
(dp4452
g70
I4
ssg71
g4446
sg64
(lp4453
S'Fri, 03 Aug 2012 15:51:58 GMT'
p4454
asbasbasbag57
(g73
g59
NtRp4455
(dp4456
g62
(dp4457
sg71
g4385
sg64
(lp4458
g57
(g78
g59
NtRp4459
(dp4460
g62
(dp4461
g82
g83
ssg71
g4455
sg64
(lp4462
S'Pragma'
p4463
asbag57
(g78
g59
NtRp4464
(dp4465
g62
(dp4466
g89
g90
ssg71
g4455
sg64
(lp4467
S':'
asbag57
(g78
g59
NtRp4468
(dp4469
g62
(dp4470
sg71
g4455
sg64
(lp4471
g57
(g58
g59
NtRp4472
(dp4473
g62
(dp4474
g70
I4
ssg71
g4468
sg64
(lp4475
S'no-cache'
p4476
asbasbasbag57
(g73
g59
NtRp4477
(dp4478
g62
(dp4479
sg71
g4385
sg64
(lp4480
g57
(g78
g59
NtRp4481
(dp4482
g62
(dp4483
g82
g83
ssg71
g4477
sg64
(lp4484
S'X-Powered-By'
p4485
asbag57
(g78
g59
NtRp4486
(dp4487
g62
(dp4488
g89
g90
ssg71
g4477
sg64
(lp4489
S':'
asbag57
(g78
g59
NtRp4490
(dp4491
g62
(dp4492
sg71
g4477
sg64
(lp4493
g57
(g58
g59
NtRp4494
(dp4495
g62
(dp4496
g70
I4
ssg71
g4490
sg64
(lp4497
S'web2py'
p4498
asbasbasbasbasbasbasbag57
(g73
g59
NtRp4499
(dp4500
g62
(dp4501
sg71
g3996
sg64
(lp4502
g57
(g78
g59
NtRp4503
(dp4504
g62
(dp4505
g82
g83
ssg71
g4499
sg64
(lp4506
S'menu'
p4507
asbag57
(g78
g59
NtRp4508
(dp4509
g62
(dp4510
g89
g90
ssg71
g4499
sg64
(lp4511
S':'
asbag57
(g78
g59
NtRp4512
(dp4513
g62
(dp4514
sg71
g4499
sg64
(lp4515
g57
(g58
g59
NtRp4516
(dp4517
g62
(dp4518
g70
I5
ssg71
g4512
sg64
(lp4519
g57
(g66
g59
NtRp4520
(dp4521
g62
(dp4522
g70
I4
ssg71
Nsg64
(lp4523
g57
(g73
g59
NtRp4524
(dp4525
g62
(dp4526
sg71
g4520
sg64
(lp4527
g57
(g78
g59
NtRp4528
(dp4529
g62
(dp4530
sg71
g4524
sg64
(lp4531
g57
(g58
g59
NtRp4532
(dp4533
g62
(dp4534
g70
I4
ssg71
g4528
sg64
(lp4535
g57
(g66
g59
NtRp4536
(dp4537
g62
(dp4538
g70
I3
ssg71
Nsg64
(lp4539
g57
(g73
g59
NtRp4540
(dp4541
g62
(dp4542
sg71
g4536
sg64
(lp4543
g57
(g78
g59
NtRp4544
(dp4545
g62
(dp4546
sg71
g4540
sg64
(lp4547
g57
(g58
g59
NtRp4548
(dp4549
g62
(dp4550
g70
I3
ssg71
g4544
sg64
(lp4551
cgluon.languages
lazyT_unpickle
p4552
(S't\x04\x00\x00\x00Home'
tRp4553
asbasbasbag57
(g73
g59
NtRp4554
(dp4555
g62
(dp4556
sg71
g4536
sg64
(lp4557
g57
(g78
g59
NtRp4558
(dp4559
g62
(dp4560
sg71
g4554
sg64
(lp4561
g57
(g58
g59
NtRp4562
(dp4563
g62
(dp4564
g70
I3
ssg71
g4558
sg64
(lp4565
g100
asbasbasbag57
(g73
g59
NtRp4566
(dp4567
g62
(dp4568
sg71
g4536
sg64
(lp4569
g57
(g78
g59
NtRp4570
(dp4571
g62
(dp4572
sg71
g4566
sg64
(lp4573
g57
(g58
g59
NtRp4574
(dp4575
g62
(dp4576
g70
I3
ssg71
g4570
sg64
(lp4577
S'/contador/default/index'
p4578
asbasbasbag57
(g73
g59
NtRp4579
(dp4580
g62
(dp4581
sg71
g4536
sg64
(lp4582
g57
(g78
g59
NtRp4583
(dp4584
g62
(dp4585
sg71
g4579
sg64
(lp4586
g57
(g58
g59
NtRp4587
(dp4588
g62
(dp4589
g70
I3
ssg71
g4583
sg64
(lp4590
g57
(g66
g59
NtRp4591
(dp4592
g62
(dp4593
g70
I2
ssg71
Nsg64
(lp4594
sbasbasbasbasbasbasbasbag57
(g73
g59
NtRp4595
(dp4596
g62
(dp4597
sg71
g4520
sg64
(lp4598
g57
(g78
g59
NtRp4599
(dp4600
g62
(dp4601
sg71
g4595
sg64
(lp4602
g57
(g58
g59
NtRp4603
(dp4604
g62
(dp4605
g70
I4
ssg71
g4599
sg64
(lp4606
g57
(g66
g59
NtRp4607
(dp4608
g62
(dp4609
g70
I3
ssg71
Nsg64
(lp4610
g57
(g73
g59
NtRp4611
(dp4612
g62
(dp4613
sg71
g4607
sg64
(lp4614
g57
(g78
g59
NtRp4615
(dp4616
g62
(dp4617
sg71
g4611
sg64
(lp4618
g57
(g58
g59
NtRp4619
(dp4620
g62
(dp4621
g70
I3
ssg71
g4615
sg64
(lp4622
g57
(cgluon.html
SPAN
p4623
g59
NtRp4624
(dp4625
g62
(dp4626
g82
S'color:yellow'
p4627
ssg71
Nsg64
(lp4628
g4498
asbasbasbasbag57
(g73
g59
NtRp4629
(dp4630
g62
(dp4631
sg71
g4607
sg64
(lp4632
g57
(g78
g59
NtRp4633
(dp4634
g62
(dp4635
sg71
g4629
sg64
(lp4636
g57
(g58
g59
NtRp4637
(dp4638
g62
(dp4639
g70
I3
ssg71
g4633
sg64
(lp4640
g100
asbasbasbag57
(g73
g59
NtRp4641
(dp4642
g62
(dp4643
sg71
g4607
sg64
(lp4644
g57
(g78
g59
NtRp4645
(dp4646
g62
(dp4647
sg71
g4641
sg64
(lp4648
g57
(g58
g59
NtRp4649
(dp4650
g62
(dp4651
g70
I3
ssg71
g4645
sg64
(lp4652
S'None'
p4653
asbasbasbag57
(g73
g59
NtRp4654
(dp4655
g62
(dp4656
sg71
g4607
sg64
(lp4657
g57
(g78
g59
NtRp4658
(dp4659
g62
(dp4660
sg71
g4654
sg64
(lp4661
g57
(g58
g59
NtRp4662
(dp4663
g62
(dp4664
g70
I3
ssg71
g4658
sg64
(lp4665
g57
(g66
g59
NtRp4666
(dp4667
g62
(dp4668
g70
I2
ssg71
Nsg64
(lp4669
g57
(g73
g59
NtRp4670
(dp4671
g62
(dp4672
sg71
g4666
sg64
(lp4673
g57
(g78
g59
NtRp4674
(dp4675
g62
(dp4676
sg71
g4670
sg64
(lp4677
g57
(g58
g59
NtRp4678
(dp4679
g62
(dp4680
g70
I2
ssg71
g4674
sg64
(lp4681
g57
(g66
g59
NtRp4682
(dp4683
g62
(dp4684
g70
I1
ssg71
Nsg64
(lp4685
g57
(g73
g59
NtRp4686
(dp4687
g62
(dp4688
sg71
g4682
sg64
(lp4689
g57
(g78
g59
NtRp4690
(dp4691
g62
(dp4692
sg71
g4686
sg64
(lp4693
g57
(g58
g59
NtRp4694
(dp4695
g62
(dp4696
g70
I1
ssg71
g4690
sg64
(lp4697
g4552
(S's\x08\x00\x00\x00My Sites'
tRp4698
asbasbasbag57
(g73
g59
NtRp4699
(dp4700
g62
(dp4701
sg71
g4682
sg64
(lp4702
g57
(g78
g59
NtRp4703
(dp4704
g62
(dp4705
sg71
g4699
sg64
(lp4706
g57
(g58
g59
NtRp4707
(dp4708
g62
(dp4709
g70
I1
ssg71
g4703
sg64
(lp4710
I00
asbasbasbag57
(g73
g59
NtRp4711
(dp4712
g62
(dp4713
sg71
g4682
sg64
(lp4714
g57
(g78
g59
NtRp4715
(dp4716
g62
(dp4717
sg71
g4711
sg64
(lp4718
g57
(g58
g59
NtRp4719
(dp4720
g62
(dp4721
g70
I1
ssg71
g4715
sg64
(lp4722
S'/admin/default/site'
p4723
asbasbasbasbasbasbasbag57
(g73
g59
NtRp4724
(dp4725
g62
(dp4726
sg71
g4666
sg64
(lp4727
g57
(g78
g59
NtRp4728
(dp4729
g62
(dp4730
sg71
g4724
sg64
(lp4731
g57
(g58
g59
NtRp4732
(dp4733
g62
(dp4734
g70
I2
ssg71
g4728
sg64
(lp4735
g57
(g66
g59
NtRp4736
(dp4737
g62
(dp4738
g70
I1
ssg71
Nsg64
(lp4739
g57
(g73
g59
NtRp4740
(dp4741
g62
(dp4742
sg71
g4736
sg64
(lp4743
g57
(g78
g59
NtRp4744
(dp4745
g62
(dp4746
sg71
g4740
sg64
(lp4747
g57
(g58
g59
NtRp4748
(dp4749
g62
(dp4750
g70
I1
ssg71
g4744
sg64
(lp4751
g4552
(S's\x08\x00\x00\x00This App'
tRp4752
asbasbasbag57
(g73
g59
NtRp4753
(dp4754
g62
(dp4755
sg71
g4736
sg64
(lp4756
g57
(g78
g59
NtRp4757
(dp4758
g62
(dp4759
sg71
g4753
sg64
(lp4760
g57
(g58
g59
NtRp4761
(dp4762
g62
(dp4763
g70
I1
ssg71
g4757
sg64
(lp4764
I00
asbasbasbag57
(g73
g59
NtRp4765
(dp4766
g62
(dp4767
sg71
g4736
sg64
(lp4768
g57
(g78
g59
NtRp4769
(dp4770
g62
(dp4771
sg71
g4765
sg64
(lp4772
g57
(g58
g59
NtRp4773
(dp4774
g62
(dp4775
g70
I1
ssg71
g4769
sg64
(lp4776
S'/admin/default/design/contador'
p4777
asbasbasbag57
(g73
g59
NtRp4778
(dp4779
g62
(dp4780
sg71
g4736
sg64
(lp4781
g57
(g78
g59
NtRp4782
(dp4783
g62
(dp4784
sg71
g4778
sg64
(lp4785
g57
(g58
g59
NtRp4786
(dp4787
g62
(dp4788
g70
I1
ssg71
g4782
sg64
(lp4789
(lp4790
(g4552
(S't\x0b\x00\x00\x00Controlador'
tRp4791
I00
S'/admin/default/edit/contador/controllers/default.py'
tp4792
a(g4552
(S't\x05\x00\x00\x00Vista'
tRp4793
I00
S'/admin/default/edit/contador/views/default/index.html'
tp4794
a(g4552
(S's\x12\x00\x00\x00Dise\xc3\xb1o de p\xc3\xa1gina'
tRp4795
I00
S'/admin/default/edit/contador/views/layout.html'
tp4796
a(g4552
(S's\x0e\x00\x00\x00Hoja de estilo'
tRp4797
I00
S'/admin/default/edit/contador/static/css/web2py.css'
tp4798
a(g4552
(S's\x0b\x00\x00\x00Modelo "db"'
tRp4799
I00
S'/admin/default/edit/contador/models/db.py'
tp4800
a(g4552
(S's\r\x00\x00\x00Modelo "menu"'
tRp4801
I00
S'/admin/default/edit/contador/models/menu.py'
tp4802
a(g4552
(S's\r\x00\x00\x00Base de datos'
tRp4803
I00
S'/contador/appadmin/index'
tp4804
a(g4552
(S't\x06\x00\x00\x00Errors'
tRp4805
I00
S'/admin/default/errors/contador'
tp4806
a(g4552
(S's\t\x00\x00\x00Acerca de'
tRp4807
I00
S'/admin/default/about/contador'
tp4808
aasbasbasbasbasbasbasbag57
(g73
g59
NtRp4809
(dp4810
g62
(dp4811
sg71
g4666
sg64
(lp4812
g57
(g78
g59
NtRp4813
(dp4814
g62
(dp4815
sg71
g4809
sg64
(lp4816
g57
(g58
g59
NtRp4817
(dp4818
g62
(dp4819
g70
I2
ssg71
g4813
sg64
(lp4820
g57
(g66
g59
NtRp4821
(dp4822
g62
(dp4823
g70
I1
ssg71
Nsg64
(lp4824
g57
(g73
g59
NtRp4825
(dp4826
g62
(dp4827
sg71
g4821
sg64
(lp4828
g57
(g78
g59
NtRp4829
(dp4830
g62
(dp4831
sg71
g4825
sg64
(lp4832
g57
(g58
g59
NtRp4833
(dp4834
g62
(dp4835
g70
I1
ssg71
g4829
sg64
(lp4836
S'web2py.com'
p4837
asbasbasbag57
(g73
g59
NtRp4838
(dp4839
g62
(dp4840
sg71
g4821
sg64
(lp4841
g57
(g78
g59
NtRp4842
(dp4843
g62
(dp4844
sg71
g4838
sg64
(lp4845
g57
(g58
g59
NtRp4846
(dp4847
g62
(dp4848
g70
I1
ssg71
g4842
sg64
(lp4849
I00
asbasbasbag57
(g73
g59
NtRp4850
(dp4851
g62
(dp4852
sg71
g4821
sg64
(lp4853
g57
(g78
g59
NtRp4854
(dp4855
g62
(dp4856
sg71
g4850
sg64
(lp4857
g57
(g58
g59
NtRp4858
(dp4859
g62
(dp4860
g70
I1
ssg71
g4854
sg64
(lp4861
S'http://www.web2py.com'
p4862
asbasbasbag57
(g73
g59
NtRp4863
(dp4864
g62
(dp4865
sg71
g4821
sg64
(lp4866
g57
(g78
g59
NtRp4867
(dp4868
g62
(dp4869
sg71
g4863
sg64
(lp4870
g57
(g58
g59
NtRp4871
(dp4872
g62
(dp4873
g70
I1
ssg71
g4867
sg64
(lp4874
(lp4875
(g4552
(S't\x08\x00\x00\x00Download'
tRp4876
I00
S'http://www.web2py.com/examples/default/download'
p4877
tp4878
a(g4552
(S't\x07\x00\x00\x00Support'
tRp4879
I00
S'http://www.web2py.com/examples/default/support'
p4880
tp4881
a(g4552
(S't\x04\x00\x00\x00Demo'
tRp4882
I00
S'http://web2py.com/demo_admin'
p4883
tp4884
a(g4552
(S's\x0e\x00\x00\x00Quick Examples'
tRp4885
I00
S'http://web2py.com/examples/default/examples'
p4886
tp4887
a(g4552
(S't\x03\x00\x00\x00FAQ'
tRp4888
I00
S'http://web2py.com/AlterEgo'
p4889
tp4890
a(g4552
(S't\x06\x00\x00\x00Videos'
tRp4891
I00
S'http://www.web2py.com/examples/default/videos/'
p4892
tp4893
a(g4552
(S's\x11\x00\x00\x00Free Applications'
tRp4894
I00
S'http://web2py.com/appliances'
p4895
tp4896
a(g4552
(S't\x07\x00\x00\x00Plugins'
tRp4897
I00
S'http://web2py.com/plugins'
p4898
tp4899
a(g4552
(S't\x07\x00\x00\x00Layouts'
tRp4900
I00
S'http://web2py.com/layouts'
p4901
tp4902
a(g4552
(S't\x07\x00\x00\x00Recipes'
tRp4903
I00
S'http://web2pyslices.com/'
p4904
tp4905
a(g4552
(S't\x08\x00\x00\x00Semantic'
tRp4906
I00
S'http://web2py.com/semantic'
p4907
tp4908
aasbasbasbasbasbasbasbag57
(g73
g59
NtRp4909
(dp4910
g62
(dp4911
sg71
g4666
sg64
(lp4912
g57
(g78
g59
NtRp4913
(dp4914
g62
(dp4915
sg71
g4909
sg64
(lp4916
g57
(g58
g59
NtRp4917
(dp4918
g62
(dp4919
g70
I2
ssg71
g4913
sg64
(lp4920
g57
(g66
g59
NtRp4921
(dp4922
g62
(dp4923
g70
I1
ssg71
Nsg64
(lp4924
g57
(g73
g59
NtRp4925
(dp4926
g62
(dp4927
sg71
g4921
sg64
(lp4928
g57
(g78
g59
NtRp4929
(dp4930
g62
(dp4931
sg71
g4925
sg64
(lp4932
g57
(g58
g59
NtRp4933
(dp4934
g62
(dp4935
g70
I1
ssg71
g4929
sg64
(lp4936
g4552
(S's\x0e\x00\x00\x00Documentaci\xc3\xb3n'
tRp4937
asbasbasbag57
(g73
g59
NtRp4938
(dp4939
g62
(dp4940
sg71
g4921
sg64
(lp4941
g57
(g78
g59
NtRp4942
(dp4943
g62
(dp4944
sg71
g4938
sg64
(lp4945
g57
(g58
g59
NtRp4946
(dp4947
g62
(dp4948
g70
I1
ssg71
g4942
sg64
(lp4949
I00
asbasbasbag57
(g73
g59
NtRp4950
(dp4951
g62
(dp4952
sg71
g4921
sg64
(lp4953
g57
(g78
g59
NtRp4954
(dp4955
g62
(dp4956
sg71
g4950
sg64
(lp4957
g57
(g58
g59
NtRp4958
(dp4959
g62
(dp4960
g70
I1
ssg71
g4954
sg64
(lp4961
S'http://www.web2py.com/book'
p4962
asbasbasbag57
(g73
g59
NtRp4963
(dp4964
g62
(dp4965
sg71
g4921
sg64
(lp4966
g57
(g78
g59
NtRp4967
(dp4968
g62
(dp4969
sg71
g4963
sg64
(lp4970
g57
(g58
g59
NtRp4971
(dp4972
g62
(dp4973
g70
I1
ssg71
g4967
sg64
(lp4974
(lp4975
(g4552
(S't\x07\x00\x00\x00Preface'
tRp4976
I00
S'http://www.web2py.com/book/default/chapter/00'
p4977
tp4978
a(g4552
(S't\x0c\x00\x00\x00Introduction'
tRp4979
I00
S'http://www.web2py.com/book/default/chapter/01'
p4980
tp4981
a(g4552
(S't\x06\x00\x00\x00Python'
tRp4982
I00
S'http://www.web2py.com/book/default/chapter/02'
p4983
tp4984
a(g4552
(S't\x08\x00\x00\x00Overview'
tRp4985
I00
S'http://www.web2py.com/book/default/chapter/03'
p4986
tp4987
a(g4552
(S's\x08\x00\x00\x00The Core'
tRp4988
I00
S'http://www.web2py.com/book/default/chapter/04'
p4989
tp4990
a(g4552
(S's\t\x00\x00\x00The Views'
tRp4991
I00
S'http://www.web2py.com/book/default/chapter/05'
p4992
tp4993
a(g4552
(S's\r\x00\x00\x00Base de datos'
tRp4994
I00
S'http://www.web2py.com/book/default/chapter/06'
p4995
tp4996
a(g4552
(S's\x14\x00\x00\x00Forms and Validators'
tRp4997
I00
S'http://www.web2py.com/book/default/chapter/07'
p4998
tp4999
a(g4552
(S's\r\x00\x00\x00Email and SMS'
tRp5000
I00
S'http://www.web2py.com/book/default/chapter/08'
p5001
tp5002
a(g4552
(S's\x0e\x00\x00\x00Access Control'
tRp5003
I00
S'http://www.web2py.com/book/default/chapter/09'
p5004
tp5005
a(g4552
(S't\x08\x00\x00\x00Services'
tRp5006
I00
S'http://www.web2py.com/book/default/chapter/10'
p5007
tp5008
a(g4552
(S's\x0c\x00\x00\x00Ajax Recipes'
tRp5009
I00
S'http://www.web2py.com/book/default/chapter/11'
p5010
tp5011
a(g4552
(S's\x16\x00\x00\x00Components and Plugins'
tRp5012
I00
S'http://www.web2py.com/book/default/chapter/12'
p5013
tp5014
a(g4552
(S's\x12\x00\x00\x00Deployment Recipes'
tRp5015
I00
S'http://www.web2py.com/book/default/chapter/13'
p5016
tp5017
a(g4552
(S's\r\x00\x00\x00Other Recipes'
tRp5018
I00
S'http://www.web2py.com/book/default/chapter/14'
p5019
tp5020
a(g4552
(S's\r\x00\x00\x00Buy this book'
tRp5021
I00
S'http://stores.lulu.com/web2py'
p5022
tp5023
aasbasbasbasbasbasbasbag57
(g73
g59
NtRp5024
(dp5025
g62
(dp5026
sg71
g4666
sg64
(lp5027
g57
(g78
g59
NtRp5028
(dp5029
g62
(dp5030
sg71
g5024
sg64
(lp5031
g57
(g58
g59
NtRp5032
(dp5033
g62
(dp5034
g70
I2
ssg71
g5028
sg64
(lp5035
g57
(g66
g59
NtRp5036
(dp5037
g62
(dp5038
g70
I1
ssg71
Nsg64
(lp5039
g57
(g73
g59
NtRp5040
(dp5041
g62
(dp5042
sg71
g5036
sg64
(lp5043
g57
(g78
g59
NtRp5044
(dp5045
g62
(dp5046
sg71
g5040
sg64
(lp5047
g57
(g58
g59
NtRp5048
(dp5049
g62
(dp5050
g70
I1
ssg71
g5044
sg64
(lp5051
g4552
(S't\t\x00\x00\x00Community'
tRp5052
asbasbasbag57
(g73
g59
NtRp5053
(dp5054
g62
(dp5055
sg71
g5036
sg64
(lp5056
g57
(g78
g59
NtRp5057
(dp5058
g62
(dp5059
sg71
g5053
sg64
(lp5060
g57
(g58
g59
NtRp5061
(dp5062
g62
(dp5063
g70
I1
ssg71
g5057
sg64
(lp5064
I00
asbasbasbag57
(g73
g59
NtRp5065
(dp5066
g62
(dp5067
sg71
g5036
sg64
(lp5068
g57
(g78
g59
NtRp5069
(dp5070
g62
(dp5071
sg71
g5065
sg64
(lp5072
g57
(g58
g59
NtRp5073
(dp5074
g62
(dp5075
g70
I1
ssg71
g5069
sg64
(lp5076
Nasbasbasbag57
(g73
g59
NtRp5077
(dp5078
g62
(dp5079
sg71
g5036
sg64
(lp5080
g57
(g78
g59
NtRp5081
(dp5082
g62
(dp5083
sg71
g5077
sg64
(lp5084
g57
(g58
g59
NtRp5085
(dp5086
g62
(dp5087
g70
I1
ssg71
g5081
sg64
(lp5088
(lp5089
(g4552
(S't\x06\x00\x00\x00Groups'
tRp5090
I00
S'http://www.web2py.com/examples/default/usergroups'
p5091
tp5092
a(g4552
(S't\x07\x00\x00\x00Twitter'
tRp5093
I00
S'http://twitter.com/web2py'
p5094
tp5095
a(g4552
(S's\t\x00\x00\x00Live Chat'
tRp5096
I00
S'http://webchat.freenode.net/?channels=web2py'
p5097
tp5098
aasbasbasbasbasbasbasbag57
(g73
g59
NtRp5099
(dp5100
g62
(dp5101
sg71
g4666
sg64
(lp5102
g57
(g78
g59
NtRp5103
(dp5104
g62
(dp5105
sg71
g5099
sg64
(lp5106
g57
(g58
g59
NtRp5107
(dp5108
g62
(dp5109
g70
I2
ssg71
g5103
sg64
(lp5110
g57
(g66
g59
NtRp5111
(dp5112
g62
(dp5113
g70
I1
ssg71
Nsg64
(lp5114
g57
(g73
g59
NtRp5115
(dp5116
g62
(dp5117
sg71
g5111
sg64
(lp5118
g57
(g78
g59
NtRp5119
(dp5120
g62
(dp5121
sg71
g5115
sg64
(lp5122
g57
(g58
g59
NtRp5123
(dp5124
g62
(dp5125
g70
I1
ssg71
g5119
sg64
(lp5126
g4552
(S't\x07\x00\x00\x00Plugins'
tRp5127
asbasbasbag57
(g73
g59
NtRp5128
(dp5129
g62
(dp5130
sg71
g5111
sg64
(lp5131
g57
(g78
g59
NtRp5132
(dp5133
g62
(dp5134
sg71
g5128
sg64
(lp5135
g57
(g58
g59
NtRp5136
(dp5137
g62
(dp5138
g70
I1
ssg71
g5132
sg64
(lp5139
I00
asbasbasbag57
(g73
g59
NtRp5140
(dp5141
g62
(dp5142
sg71
g5111
sg64
(lp5143
g57
(g78
g59
NtRp5144
(dp5145
g62
(dp5146
sg71
g5140
sg64
(lp5147
g57
(g58
g59
NtRp5148
(dp5149
g62
(dp5150
g70
I1
ssg71
g5144
sg64
(lp5151
Nasbasbasbag57
(g73
g59
NtRp5152
(dp5153
g62
(dp5154
sg71
g5111
sg64
(lp5155
g57
(g78
g59
NtRp5156
(dp5157
g62
(dp5158
sg71
g5152
sg64
(lp5159
g57
(g58
g59
NtRp5160
(dp5161
g62
(dp5162
g70
I1
ssg71
g5156
sg64
(lp5163
(lp5164
(S'plugin_wiki'
p5165
I00
S'http://web2py.com/examples/default/download'
p5166
tp5167
a(g4552
(S's\r\x00\x00\x00Other Plugins'
tRp5168
I00
g4898
tp5169
a(g4552
(S's\x0e\x00\x00\x00Layout Plugins'
tRp5170
I00
g4901
tp5171
aasbasbasbasbasbasbasbasbasbasbasbasbasbasbasbasbasbasbasbag57
(g73
g59
NtRp5172
(dp5173
g62
(dp5174
sg71
g3996
sg64
(lp5175
g57
(g78
g59
NtRp5176
(dp5177
g62
(dp5178
g82
g83
ssg71
g5172
sg64
(lp5179
S'meta'
p5180
asbag57
(g78
g59
NtRp5181
(dp5182
g62
(dp5183
g89
g90
ssg71
g5172
sg64
(lp5184
S':'
asbag57
(g78
g59
NtRp5185
(dp5186
g62
(dp5187
sg71
g5172
sg64
(lp5188
g57
(g58
g59
NtRp5189
(dp5190
g62
(dp5191
g70
I5
ssg71
g5185
sg64
(lp5192
g57
(g66
g59
NtRp5193
(dp5194
g62
(dp5195
g70
I4
ssg71
Nsg64
(lp5196
g57
(g73
g59
NtRp5197
(dp5198
g62
(dp5199
sg71
g5193
sg64
(lp5200
g57
(g78
g59
NtRp5201
(dp5202
g62
(dp5203
g82
g83
ssg71
g5197
sg64
(lp5204
S'author'
p5205
asbag57
(g78
g59
NtRp5206
(dp5207
g62
(dp5208
g89
g90
ssg71
g5197
sg64
(lp5209
S':'
asbag57
(g78
g59
NtRp5210
(dp5211
g62
(dp5212
sg71
g5197
sg64
(lp5213
g57
(g58
g59
NtRp5214
(dp5215
g62
(dp5216
g70
I4
ssg71
g5210
sg64
(lp5217
S'Your Name <you@example.com>'
p5218
asbasbasbag57
(g73
g59
NtRp5219
(dp5220
g62
(dp5221
sg71
g5193
sg64
(lp5222
g57
(g78
g59
NtRp5223
(dp5224
g62
(dp5225
g82
g83
ssg71
g5219
sg64
(lp5226
S'copyright'
p5227
asbag57
(g78
g59
NtRp5228
(dp5229
g62
(dp5230
g89
g90
ssg71
g5219
sg64
(lp5231
S':'
asbag57
(g78
g59
NtRp5232
(dp5233
g62
(dp5234
sg71
g5219
sg64
(lp5235
g57
(g58
g59
NtRp5236
(dp5237
g62
(dp5238
g70
I4
ssg71
g5232
sg64
(lp5239
S'Copyright 2011'
p5240
asbasbasbag57
(g73
g59
NtRp5241
(dp5242
g62
(dp5243
sg71
g5193
sg64
(lp5244
g57
(g78
g59
NtRp5245
(dp5246
g62
(dp5247
g82
g83
ssg71
g5241
sg64
(lp5248
S'description'
p5249
asbag57
(g78
g59
NtRp5250
(dp5251
g62
(dp5252
g89
g90
ssg71
g5241
sg64
(lp5253
S':'
asbag57
(g78
g59
NtRp5254
(dp5255
g62
(dp5256
sg71
g5241
sg64
(lp5257
g57
(g58
g59
NtRp5258
(dp5259
g62
(dp5260
g70
I4
ssg71
g5254
sg64
(lp5261
S'a cool new app'
p5262
asbasbasbag57
(g73
g59
NtRp5263
(dp5264
g62
(dp5265
sg71
g5193
sg64
(lp5266
g57
(g78
g59
NtRp5267
(dp5268
g62
(dp5269
g82
g83
ssg71
g5263
sg64
(lp5270
S'generator'
p5271
asbag57
(g78
g59
NtRp5272
(dp5273
g62
(dp5274
g89
g90
ssg71
g5263
sg64
(lp5275
S':'
asbag57
(g78
g59
NtRp5276
(dp5277
g62
(dp5278
sg71
g5263
sg64
(lp5279
g57
(g58
g59
NtRp5280
(dp5281
g62
(dp5282
g70
I4
ssg71
g5276
sg64
(lp5283
S'Web2py Web Framework'
p5284
asbasbasbag57
(g73
g59
NtRp5285
(dp5286
g62
(dp5287
sg71
g5193
sg64
(lp5288
g57
(g78
g59
NtRp5289
(dp5290
g62
(dp5291
g82
g83
ssg71
g5285
sg64
(lp5292
S'keywords'
p5293
asbag57
(g78
g59
NtRp5294
(dp5295
g62
(dp5296
g89
g90
ssg71
g5285
sg64
(lp5297
S':'
asbag57
(g78
g59
NtRp5298
(dp5299
g62
(dp5300
sg71
g5285
sg64
(lp5301
g57
(g58
g59
NtRp5302
(dp5303
g62
(dp5304
g70
I4
ssg71
g5298
sg64
(lp5305
S'web2py, python, framework'
p5306
asbasbasbasbasbasbasbag57
(g73
g59
NtRp5307
(dp5308
g62
(dp5309
sg71
g3996
sg64
(lp5310
g57
(g78
g59
NtRp5311
(dp5312
g62
(dp5313
g82
g83
ssg71
g5307
sg64
(lp5314
S'postprocessing'
p5315
asbag57
(g78
g59
NtRp5316
(dp5317
g62
(dp5318
g89
g90
ssg71
g5307
sg64
(lp5319
S':'
asbag57
(g78
g59
NtRp5320
(dp5321
g62
(dp5322
sg71
g5307
sg64
(lp5323
g57
(g58
g59
NtRp5324
(dp5325
g62
(dp5326
g70
I5
ssg71
g5320
sg64
(lp5327
g57
(g66
g59
NtRp5328
(dp5329
g62
(dp5330
g70
I4
ssg71
Nsg64
(lp5331
sbasbasbasbag57
(g73
g59
NtRp5332
(dp5333
g62
(dp5334
sg71
g3996
sg64
(lp5335
g57
(g78
g59
NtRp5336
(dp5337
g62
(dp5338
g82
g83
ssg71
g5332
sg64
(lp5339
S'session_file'
p5340
asbag57
(g78
g59
NtRp5341
(dp5342
g62
(dp5343
g89
g90
ssg71
g5332
sg64
(lp5344
S':'
asbag57
(g78
g59
NtRp5345
(dp5346
g62
(dp5347
sg71
g5332
sg64
(lp5348
g57
(g58
g59
NtRp5349
(dp5350
g62
(dp5351
g70
I5
ssg71
g5345
sg64
(lp5352
S"<open file '/Users/emir/Documents/beardcode/web2py/applications/contador/sessions/127.0.0.1-2b69a554-5d73-450d-a1a3-2f7111772fbb', mode 'rb+' at 0x1105671e0>"
p5353
asbasbasbag57
(g73
g59
NtRp5354
(dp5355
g62
(dp5356
sg71
g3996
sg64
(lp5357
g57
(g78
g59
NtRp5358
(dp5359
g62
(dp5360
g82
g83
ssg71
g5354
sg64
(lp5361
S'session_filename'
p5362
asbag57
(g78
g59
NtRp5363
(dp5364
g62
(dp5365
g89
g90
ssg71
g5354
sg64
(lp5366
S':'
asbag57
(g78
g59
NtRp5367
(dp5368
g62
(dp5369
sg71
g5354
sg64
(lp5370
g57
(g58
g59
NtRp5371
(dp5372
g62
(dp5373
g70
I5
ssg71
g5367
sg64
(lp5374
S'/Users/emir/Documents/beardcode/web2py/applications/contador/sessions/127.0.0.1-2b69a554-5d73-450d-a1a3-2f7111772fbb'
p5375
asbasbasbag57
(g73
g59
NtRp5376
(dp5377
g62
(dp5378
sg71
g3996
sg64
(lp5379
g57
(g78
g59
NtRp5380
(dp5381
g62
(dp5382
g82
g83
ssg71
g5376
sg64
(lp5383
S'session_id'
p5384
asbag57
(g78
g59
NtRp5385
(dp5386
g62
(dp5387
g89
g90
ssg71
g5376
sg64
(lp5388
S':'
asbag57
(g78
g59
NtRp5389
(dp5390
g62
(dp5391
sg71
g5376
sg64
(lp5392
g57
(g58
g59
NtRp5393
(dp5394
g62
(dp5395
g70
I5
ssg71
g5389
sg64
(lp5396
S'127.0.0.1-2b69a554-5d73-450d-a1a3-2f7111772fbb'
p5397
asbasbasbag57
(g73
g59
NtRp5398
(dp5399
g62
(dp5400
sg71
g3996
sg64
(lp5401
g57
(g78
g59
NtRp5402
(dp5403
g62
(dp5404
g82
g83
ssg71
g5398
sg64
(lp5405
S'session_id_name'
p5406
asbag57
(g78
g59
NtRp5407
(dp5408
g62
(dp5409
g89
g90
ssg71
g5398
sg64
(lp5410
S':'
asbag57
(g78
g59
NtRp5411
(dp5412
g62
(dp5413
sg71
g5398
sg64
(lp5414
g57
(g58
g59
NtRp5415
(dp5416
g62
(dp5417
g70
I5
ssg71
g5411
sg64
(lp5418
g4053
asbasbasbag57
(g73
g59
NtRp5419
(dp5420
g62
(dp5421
sg71
g3996
sg64
(lp5422
g57
(g78
g59
NtRp5423
(dp5424
g62
(dp5425
g82
g83
ssg71
g5419
sg64
(lp5426
S'session_locked'
p5427
asbag57
(g78
g59
NtRp5428
(dp5429
g62
(dp5430
g89
g90
ssg71
g5419
sg64
(lp5431
S':'
asbag57
(g78
g59
NtRp5432
(dp5433
g62
(dp5434
sg71
g5419
sg64
(lp5435
g57
(g58
g59
NtRp5436
(dp5437
g62
(dp5438
g70
I5
ssg71
g5432
sg64
(lp5439
g2189
asbasbasbag57
(g73
g59
NtRp5440
(dp5441
g62
(dp5442
sg71
g3996
sg64
(lp5443
g57
(g78
g59
NtRp5444
(dp5445
g62
(dp5446
g82
g83
ssg71
g5440
sg64
(lp5447
S'session_new'
p5448
asbag57
(g78
g59
NtRp5449
(dp5450
g62
(dp5451
g89
g90
ssg71
g5440
sg64
(lp5452
S':'
asbag57
(g78
g59
NtRp5453
(dp5454
g62
(dp5455
sg71
g5440
sg64
(lp5456
g57
(g58
g59
NtRp5457
(dp5458
g62
(dp5459
g70
I5
ssg71
g5453
sg64
(lp5460
g100
asbasbasbag57
(g73
g59
NtRp5461
(dp5462
g62
(dp5463
sg71
g3996
sg64
(lp5464
g57
(g78
g59
NtRp5465
(dp5466
g62
(dp5467
g82
g83
ssg71
g5461
sg64
(lp5468
S'status'
p5469
asbag57
(g78
g59
NtRp5470
(dp5471
g62
(dp5472
g89
g90
ssg71
g5461
sg64
(lp5473
S':'
asbag57
(g78
g59
NtRp5474
(dp5475
g62
(dp5476
sg71
g5461
sg64
(lp5477
g57
(g58
g59
NtRp5478
(dp5479
g62
(dp5480
g70
I5
ssg71
g5474
sg64
(lp5481
S'200'
p5482
asbasbasbag57
(g73
g59
NtRp5483
(dp5484
g62
(dp5485
sg71
g3996
sg64
(lp5486
g57
(g78
g59
NtRp5487
(dp5488
g62
(dp5489
g82
g83
ssg71
g5483
sg64
(lp5490
S'subtitle'
p5491
asbag57
(g78
g59
NtRp5492
(dp5493
g62
(dp5494
g89
g90
ssg71
g5483
sg64
(lp5495
S':'
asbag57
(g78
g59
NtRp5496
(dp5497
g62
(dp5498
sg71
g5483
sg64
(lp5499
g57
(g58
g59
NtRp5500
(dp5501
g62
(dp5502
g70
I5
ssg71
g5496
sg64
(lp5503
g4552
(S's\t\x00\x00\x00Adaptame!'
tRp5504
asbasbasbag57
(g73
g59
NtRp5505
(dp5506
g62
(dp5507
sg71
g3996
sg64
(lp5508
g57
(g78
g59
NtRp5509
(dp5510
g62
(dp5511
g82
g83
ssg71
g5505
sg64
(lp5512
S'title'
p5513
asbag57
(g78
g59
NtRp5514
(dp5515
g62
(dp5516
g89
g90
ssg71
g5505
sg64
(lp5517
S':'
asbag57
(g78
g59
NtRp5518
(dp5519
g62
(dp5520
sg71
g5505
sg64
(lp5521
g57
(g58
g59
NtRp5522
(dp5523
g62
(dp5524
g70
I5
ssg71
g5518
sg64
(lp5525
S'Contador'
p5526
asbasbasbag57
(g73
g59
NtRp5527
(dp5528
g62
(dp5529
sg71
g3996
sg64
(lp5530
g57
(g78
g59
NtRp5531
(dp5532
g62
(dp5533
g82
g83
ssg71
g5527
sg64
(lp5534
g2809
asbag57
(g78
g59
NtRp5535
(dp5536
g62
(dp5537
g89
g90
ssg71
g5527
sg64
(lp5538
S':'
asbag57
(g78
g59
NtRp5539
(dp5540
g62
(dp5541
sg71
g5527
sg64
(lp5542
g57
(g58
g59
NtRp5543
(dp5544
g62
(dp5545
g70
I5
ssg71
g5539
sg64
(lp5546
g2822
asbasbasbag57
(g73
g59
NtRp5547
(dp5548
g62
(dp5549
sg71
g3996
sg64
(lp5550
g57
(g78
g59
NtRp5551
(dp5552
g62
(dp5553
g82
g83
ssg71
g5547
sg64
(lp5554
S'view'
p5555
asbag57
(g78
g59
NtRp5556
(dp5557
g62
(dp5558
g89
g90
ssg71
g5547
sg64
(lp5559
S':'
asbag57
(g78
g59
NtRp5560
(dp5561
g62
(dp5562
sg71
g5547
sg64
(lp5563
g57
(g58
g59
NtRp5564
(dp5565
g62
(dp5566
g70
I5
ssg71
g5560
sg64
(lp5567
S'default/index.html'
p5568
asbasbasbasbasbsS'locals'
p5569
(dp5570
ssS'traceback'
p5571
S'Traceback (most recent call last):\n  File "/Users/emir/Documents/beardcode/web2py/gluon/restricted.py", line 205, in restricted\n    exec ccode in environment\n  File "/Users/emir/Documents/beardcode/web2py/applications/contador/controllers/default.py", line 21, in <module>\n  File "/Users/emir/Documents/beardcode/web2py/gluon/globals.py", line 173, in <lambda>\n    self._caller = lambda f: f()\n  File "/Users/emir/Documents/beardcode/web2py/applications/contador/controllers/default.py", line 19, in index\n    return dict(nv=session.counter,ti=ti)\nNameError: global name \'ti\' is not defined\n'
p5572
s.