(dp1
S'output'
p2
S"<type 'exceptions.SyntaxError'> non-keyword arg after keyword arg (default.py, line 19)"
p3
sS'layer'
p4
S'/Users/emir/Documents/beardcode/web2py/applications/contador/controllers/default.py'
p5
sS'code'
p6
S"# -*- coding: utf-8 -*-\n# this file is released under public domain and you can use without limitations\n\n#########################################################################\n## This is a samples controller\n## - index is the default action of any application\n## - user is required for authentication and authorization\n## - download is for downloading files uploaded in the db (does streaming)\n## - call exposes all registered services (none by default)\n#########################################################################\n\ntit = 'Contador de visitas'\n\ndef index():\n    if not session.counter:\n        session.counter = 1\n    else:\n        session.counter += 1\n    return dict(nv=session.counter,ti)\n\nresponse._vars=response._caller(index)\n"
p7
sS'snapshot'
p8
(dp9
S'exception'
p10
(dp11
S'__getslice__'
p12
S"<method-wrapper '__getslice__' of exceptions.SyntaxError object>"
p13
sS'text'
p14
S"'return dict(nv=session.counter,ti)\\n'"
p15
sS'__str__'
p16
S"<method-wrapper '__str__' of exceptions.SyntaxError object>"
p17
sS'__reduce__'
p18
S'<built-in method __reduce__ of exceptions.SyntaxError object>'
p19
sS'__dict__'
p20
S'{}'
p21
sS'__sizeof__'
p22
S'<built-in method __sizeof__ of exceptions.SyntaxError object>'
p23
sS'__init__'
p24
S"<method-wrapper '__init__' of exceptions.SyntaxError object>"
p25
sS'__setattr__'
p26
S"<method-wrapper '__setattr__' of exceptions.SyntaxError object>"
p27
sS'__reduce_ex__'
p28
S'<built-in method __reduce_ex__ of exceptions.SyntaxError object>'
p29
sS'__new__'
p30
S'<built-in method __new__ of type object>'
p31
sS'__format__'
p32
S'<built-in method __format__ of exceptions.SyntaxError object>'
p33
sS'__class__'
p34
S"<type 'exceptions.SyntaxError'>"
p35
sS'filename'
p36
S"'/Users/emir/Documents/beardcode/web2py/applications/contador/controllers/default.py'"
p37
sS'lineno'
p38
S'19'
p39
sS'msg'
p40
S"'non-keyword arg after keyword arg'"
p41
sS'__doc__'
p42
S"'Invalid syntax.'"
p43
sS'__getitem__'
p44
S"<method-wrapper '__getitem__' of exceptions.SyntaxError object>"
p45
sS'__setstate__'
p46
S'<built-in method __setstate__ of exceptions.SyntaxError object>'
p47
sS'__getattribute__'
p48
S"<method-wrapper '__getattribute__' of exceptions.SyntaxError object>"
p49
sS'print_file_and_line'
p50
S'None'
p51
sS'args'
p52
S"('non-keyword arg after keyword arg', ('/Users/emir/Documents/beardcode/web2py/applications/contador/controllers/default.py', 19, None, 'return dict(nv=session.counter,ti)\\n'))"
p53
sS'__subclasshook__'
p54
S'<built-in method __subclasshook__ of type object>'
p55
sS'offset'
p56
S'None'
p57
sS'__unicode__'
p58
S'<built-in method __unicode__ of exceptions.SyntaxError object>'
p59
sS'__delattr__'
p60
S"<method-wrapper '__delattr__' of exceptions.SyntaxError object>"
p61
sS'__repr__'
p62
S"<method-wrapper '__repr__' of exceptions.SyntaxError object>"
p63
sS'__hash__'
p64
S"<method-wrapper '__hash__' of exceptions.SyntaxError object>"
p65
ssS'evalue'
p66
S'non-keyword arg after keyword arg (default.py, line 19)'
p67
sS'request'
p68
ccopy_reg
_reconstructor
p69
(cgluon.html
BEAUTIFY
p70
c__builtin__
object
p71
NtRp72
(dp73
S'attributes'
p74
(dp75
sS'components'
p76
(lp77
g69
(cgluon.html
TABLE
p78
g71
NtRp79
(dp80
g74
(dp81
S'level'
p82
I5
ssS'parent'
p83
Nsg76
(lp84
g69
(cgluon.html
TR
p85
g71
NtRp86
(dp87
g74
(dp88
sg83
g79
sg76
(lp89
g69
(cgluon.html
TD
p90
g71
NtRp91
(dp92
g74
(dp93
S'_style'
p94
S'font-weight:bold;vertical-align:top'
p95
ssg83
g86
sg76
(lp96
S'ajax'
p97
asbag69
(g90
g71
NtRp98
(dp99
g74
(dp100
S'_valign'
p101
S'top'
p102
ssg83
g86
sg76
(lp103
S':'
asbag69
(g90
g71
NtRp104
(dp105
g74
(dp106
sg83
g86
sg76
(lp107
g69
(g70
g71
NtRp108
(dp109
g74
(dp110
g82
I5
ssg83
g104
sg76
(lp111
S'False'
p112
asbasbasbag69
(g85
g71
NtRp113
(dp114
g74
(dp115
sg83
g79
sg76
(lp116
g69
(g90
g71
NtRp117
(dp118
g74
(dp119
g94
g95
ssg83
g113
sg76
(lp120
S'application'
p121
asbag69
(g90
g71
NtRp122
(dp123
g74
(dp124
g101
g102
ssg83
g113
sg76
(lp125
S':'
asbag69
(g90
g71
NtRp126
(dp127
g74
(dp128
sg83
g113
sg76
(lp129
g69
(g70
g71
NtRp130
(dp131
g74
(dp132
g82
I5
ssg83
g126
sg76
(lp133
S'contador'
p134
asbasbasbag69
(g85
g71
NtRp135
(dp136
g74
(dp137
sg83
g79
sg76
(lp138
g69
(g90
g71
NtRp139
(dp140
g74
(dp141
g94
g95
ssg83
g135
sg76
(lp142
g52
asbag69
(g90
g71
NtRp143
(dp144
g74
(dp145
g101
g102
ssg83
g135
sg76
(lp146
S':'
asbag69
(g90
g71
NtRp147
(dp148
g74
(dp149
sg83
g135
sg76
(lp150
g69
(g70
g71
NtRp151
(dp152
g74
(dp153
g82
I5
ssg83
g147
sg76
(lp154
g69
(g78
g71
NtRp155
(dp156
g74
(dp157
g82
I4
ssg83
Nsg76
(lp158
sbasbasbasbag69
(g85
g71
NtRp159
(dp160
g74
(dp161
sg83
g79
sg76
(lp162
g69
(g90
g71
NtRp163
(dp164
g74
(dp165
g94
g95
ssg83
g159
sg76
(lp166
S'body'
p167
asbag69
(g90
g71
NtRp168
(dp169
g74
(dp170
g101
g102
ssg83
g159
sg76
(lp171
S':'
asbag69
(g90
g71
NtRp172
(dp173
g74
(dp174
sg83
g159
sg76
(lp175
g69
(g70
g71
NtRp176
(dp177
g74
(dp178
g82
I5
ssg83
g172
sg76
(lp179
S'<cStringIO.StringO object at 0x110a29110>'
p180
asbasbasbag69
(g85
g71
NtRp181
(dp182
g74
(dp183
sg83
g79
sg76
(lp184
g69
(g90
g71
NtRp185
(dp186
g74
(dp187
g94
g95
ssg83
g181
sg76
(lp188
S'client'
p189
asbag69
(g90
g71
NtRp190
(dp191
g74
(dp192
g101
g102
ssg83
g181
sg76
(lp193
S':'
asbag69
(g90
g71
NtRp194
(dp195
g74
(dp196
sg83
g181
sg76
(lp197
g69
(g70
g71
NtRp198
(dp199
g74
(dp200
g82
I5
ssg83
g194
sg76
(lp201
S'127.0.0.1'
p202
asbasbasbag69
(g85
g71
NtRp203
(dp204
g74
(dp205
sg83
g79
sg76
(lp206
g69
(g90
g71
NtRp207
(dp208
g74
(dp209
g94
g95
ssg83
g203
sg76
(lp210
S'controller'
p211
asbag69
(g90
g71
NtRp212
(dp213
g74
(dp214
g101
g102
ssg83
g203
sg76
(lp215
S':'
asbag69
(g90
g71
NtRp216
(dp217
g74
(dp218
sg83
g203
sg76
(lp219
g69
(g70
g71
NtRp220
(dp221
g74
(dp222
g82
I5
ssg83
g216
sg76
(lp223
S'default'
p224
asbasbasbag69
(g85
g71
NtRp225
(dp226
g74
(dp227
sg83
g79
sg76
(lp228
g69
(g90
g71
NtRp229
(dp230
g74
(dp231
g94
g95
ssg83
g225
sg76
(lp232
S'cookies'
p233
asbag69
(g90
g71
NtRp234
(dp235
g74
(dp236
g101
g102
ssg83
g225
sg76
(lp237
S':'
asbag69
(g90
g71
NtRp238
(dp239
g74
(dp240
sg83
g225
sg76
(lp241
g69
(g70
g71
NtRp242
(dp243
g74
(dp244
g82
I5
ssg83
g238
sg76
(lp245
g69
(g78
g71
NtRp246
(dp247
g74
(dp248
g82
I4
ssg83
Nsg76
(lp249
g69
(g85
g71
NtRp250
(dp251
g74
(dp252
sg83
g246
sg76
(lp253
g69
(g90
g71
NtRp254
(dp255
g74
(dp256
g94
g95
ssg83
g250
sg76
(lp257
S'session_id_admin'
p258
asbag69
(g90
g71
NtRp259
(dp260
g74
(dp261
g101
g102
ssg83
g250
sg76
(lp262
S':'
asbag69
(g90
g71
NtRp263
(dp264
g74
(dp265
sg83
g250
sg76
(lp266
g69
(g70
g71
NtRp267
(dp268
g74
(dp269
g82
I4
ssg83
g263
sg76
(lp270
g69
(g78
g71
NtRp271
(dp272
g74
(dp273
g82
I3
ssg83
Nsg76
(lp274
g69
(g85
g71
NtRp275
(dp276
g74
(dp277
sg83
g271
sg76
(lp278
g69
(g90
g71
NtRp279
(dp280
g74
(dp281
g94
g95
ssg83
g275
sg76
(lp282
S'comment'
p283
asbag69
(g90
g71
NtRp284
(dp285
g74
(dp286
g101
g102
ssg83
g275
sg76
(lp287
S':'
asbag69
(g90
g71
NtRp288
(dp289
g74
(dp290
sg83
g275
sg76
(lp291
g69
(g70
g71
NtRp292
(dp293
g74
(dp294
g82
I3
ssg83
g288
sg76
(lp295
S''
asbasbasbag69
(g85
g71
NtRp296
(dp297
g74
(dp298
sg83
g271
sg76
(lp299
g69
(g90
g71
NtRp300
(dp301
g74
(dp302
g94
g95
ssg83
g296
sg76
(lp303
S'domain'
p304
asbag69
(g90
g71
NtRp305
(dp306
g74
(dp307
g101
g102
ssg83
g296
sg76
(lp308
S':'
asbag69
(g90
g71
NtRp309
(dp310
g74
(dp311
sg83
g296
sg76
(lp312
g69
(g70
g71
NtRp313
(dp314
g74
(dp315
g82
I3
ssg83
g309
sg76
(lp316
S''
asbasbasbag69
(g85
g71
NtRp317
(dp318
g74
(dp319
sg83
g271
sg76
(lp320
g69
(g90
g71
NtRp321
(dp322
g74
(dp323
g94
g95
ssg83
g317
sg76
(lp324
S'expires'
p325
asbag69
(g90
g71
NtRp326
(dp327
g74
(dp328
g101
g102
ssg83
g317
sg76
(lp329
S':'
asbag69
(g90
g71
NtRp330
(dp331
g74
(dp332
sg83
g317
sg76
(lp333
g69
(g70
g71
NtRp334
(dp335
g74
(dp336
g82
I3
ssg83
g330
sg76
(lp337
S''
asbasbasbag69
(g85
g71
NtRp338
(dp339
g74
(dp340
sg83
g271
sg76
(lp341
g69
(g90
g71
NtRp342
(dp343
g74
(dp344
g94
g95
ssg83
g338
sg76
(lp345
S'httponly'
p346
asbag69
(g90
g71
NtRp347
(dp348
g74
(dp349
g101
g102
ssg83
g338
sg76
(lp350
S':'
asbag69
(g90
g71
NtRp351
(dp352
g74
(dp353
sg83
g338
sg76
(lp354
g69
(g70
g71
NtRp355
(dp356
g74
(dp357
g82
I3
ssg83
g351
sg76
(lp358
S''
asbasbasbag69
(g85
g71
NtRp359
(dp360
g74
(dp361
sg83
g271
sg76
(lp362
g69
(g90
g71
NtRp363
(dp364
g74
(dp365
g94
g95
ssg83
g359
sg76
(lp366
S'max-age'
p367
asbag69
(g90
g71
NtRp368
(dp369
g74
(dp370
g101
g102
ssg83
g359
sg76
(lp371
S':'
asbag69
(g90
g71
NtRp372
(dp373
g74
(dp374
sg83
g359
sg76
(lp375
g69
(g70
g71
NtRp376
(dp377
g74
(dp378
g82
I3
ssg83
g372
sg76
(lp379
S''
asbasbasbag69
(g85
g71
NtRp380
(dp381
g74
(dp382
sg83
g271
sg76
(lp383
g69
(g90
g71
NtRp384
(dp385
g74
(dp386
g94
g95
ssg83
g380
sg76
(lp387
S'path'
p388
asbag69
(g90
g71
NtRp389
(dp390
g74
(dp391
g101
g102
ssg83
g380
sg76
(lp392
S':'
asbag69
(g90
g71
NtRp393
(dp394
g74
(dp395
sg83
g380
sg76
(lp396
g69
(g70
g71
NtRp397
(dp398
g74
(dp399
g82
I3
ssg83
g393
sg76
(lp400
S''
asbasbasbag69
(g85
g71
NtRp401
(dp402
g74
(dp403
sg83
g271
sg76
(lp404
g69
(g90
g71
NtRp405
(dp406
g74
(dp407
g94
g95
ssg83
g401
sg76
(lp408
S'secure'
p409
asbag69
(g90
g71
NtRp410
(dp411
g74
(dp412
g101
g102
ssg83
g401
sg76
(lp413
S':'
asbag69
(g90
g71
NtRp414
(dp415
g74
(dp416
sg83
g401
sg76
(lp417
g69
(g70
g71
NtRp418
(dp419
g74
(dp420
g82
I3
ssg83
g414
sg76
(lp421
S''
asbasbasbag69
(g85
g71
NtRp422
(dp423
g74
(dp424
sg83
g271
sg76
(lp425
g69
(g90
g71
NtRp426
(dp427
g74
(dp428
g94
g95
ssg83
g422
sg76
(lp429
S'version'
p430
asbag69
(g90
g71
NtRp431
(dp432
g74
(dp433
g101
g102
ssg83
g422
sg76
(lp434
S':'
asbag69
(g90
g71
NtRp435
(dp436
g74
(dp437
sg83
g422
sg76
(lp438
g69
(g70
g71
NtRp439
(dp440
g74
(dp441
g82
I3
ssg83
g435
sg76
(lp442
S''
asbasbasbasbasbasbasbag69
(g85
g71
NtRp443
(dp444
g74
(dp445
sg83
g246
sg76
(lp446
g69
(g90
g71
NtRp447
(dp448
g74
(dp449
g94
g95
ssg83
g443
sg76
(lp450
S'session_id_contador'
p451
asbag69
(g90
g71
NtRp452
(dp453
g74
(dp454
g101
g102
ssg83
g443
sg76
(lp455
S':'
asbag69
(g90
g71
NtRp456
(dp457
g74
(dp458
sg83
g443
sg76
(lp459
g69
(g70
g71
NtRp460
(dp461
g74
(dp462
g82
I4
ssg83
g456
sg76
(lp463
g69
(g78
g71
NtRp464
(dp465
g74
(dp466
g82
I3
ssg83
Nsg76
(lp467
g69
(g85
g71
NtRp468
(dp469
g74
(dp470
sg83
g464
sg76
(lp471
g69
(g90
g71
NtRp472
(dp473
g74
(dp474
g94
g95
ssg83
g468
sg76
(lp475
g283
asbag69
(g90
g71
NtRp476
(dp477
g74
(dp478
g101
g102
ssg83
g468
sg76
(lp479
S':'
asbag69
(g90
g71
NtRp480
(dp481
g74
(dp482
sg83
g468
sg76
(lp483
g69
(g70
g71
NtRp484
(dp485
g74
(dp486
g82
I3
ssg83
g480
sg76
(lp487
S''
asbasbasbag69
(g85
g71
NtRp488
(dp489
g74
(dp490
sg83
g464
sg76
(lp491
g69
(g90
g71
NtRp492
(dp493
g74
(dp494
g94
g95
ssg83
g488
sg76
(lp495
g304
asbag69
(g90
g71
NtRp496
(dp497
g74
(dp498
g101
g102
ssg83
g488
sg76
(lp499
S':'
asbag69
(g90
g71
NtRp500
(dp501
g74
(dp502
sg83
g488
sg76
(lp503
g69
(g70
g71
NtRp504
(dp505
g74
(dp506
g82
I3
ssg83
g500
sg76
(lp507
S''
asbasbasbag69
(g85
g71
NtRp508
(dp509
g74
(dp510
sg83
g464
sg76
(lp511
g69
(g90
g71
NtRp512
(dp513
g74
(dp514
g94
g95
ssg83
g508
sg76
(lp515
g325
asbag69
(g90
g71
NtRp516
(dp517
g74
(dp518
g101
g102
ssg83
g508
sg76
(lp519
S':'
asbag69
(g90
g71
NtRp520
(dp521
g74
(dp522
sg83
g508
sg76
(lp523
g69
(g70
g71
NtRp524
(dp525
g74
(dp526
g82
I3
ssg83
g520
sg76
(lp527
S''
asbasbasbag69
(g85
g71
NtRp528
(dp529
g74
(dp530
sg83
g464
sg76
(lp531
g69
(g90
g71
NtRp532
(dp533
g74
(dp534
g94
g95
ssg83
g528
sg76
(lp535
g346
asbag69
(g90
g71
NtRp536
(dp537
g74
(dp538
g101
g102
ssg83
g528
sg76
(lp539
S':'
asbag69
(g90
g71
NtRp540
(dp541
g74
(dp542
sg83
g528
sg76
(lp543
g69
(g70
g71
NtRp544
(dp545
g74
(dp546
g82
I3
ssg83
g540
sg76
(lp547
S''
asbasbasbag69
(g85
g71
NtRp548
(dp549
g74
(dp550
sg83
g464
sg76
(lp551
g69
(g90
g71
NtRp552
(dp553
g74
(dp554
g94
g95
ssg83
g548
sg76
(lp555
g367
asbag69
(g90
g71
NtRp556
(dp557
g74
(dp558
g101
g102
ssg83
g548
sg76
(lp559
S':'
asbag69
(g90
g71
NtRp560
(dp561
g74
(dp562
sg83
g548
sg76
(lp563
g69
(g70
g71
NtRp564
(dp565
g74
(dp566
g82
I3
ssg83
g560
sg76
(lp567
S''
asbasbasbag69
(g85
g71
NtRp568
(dp569
g74
(dp570
sg83
g464
sg76
(lp571
g69
(g90
g71
NtRp572
(dp573
g74
(dp574
g94
g95
ssg83
g568
sg76
(lp575
g388
asbag69
(g90
g71
NtRp576
(dp577
g74
(dp578
g101
g102
ssg83
g568
sg76
(lp579
S':'
asbag69
(g90
g71
NtRp580
(dp581
g74
(dp582
sg83
g568
sg76
(lp583
g69
(g70
g71
NtRp584
(dp585
g74
(dp586
g82
I3
ssg83
g580
sg76
(lp587
S''
asbasbasbag69
(g85
g71
NtRp588
(dp589
g74
(dp590
sg83
g464
sg76
(lp591
g69
(g90
g71
NtRp592
(dp593
g74
(dp594
g94
g95
ssg83
g588
sg76
(lp595
g409
asbag69
(g90
g71
NtRp596
(dp597
g74
(dp598
g101
g102
ssg83
g588
sg76
(lp599
S':'
asbag69
(g90
g71
NtRp600
(dp601
g74
(dp602
sg83
g588
sg76
(lp603
g69
(g70
g71
NtRp604
(dp605
g74
(dp606
g82
I3
ssg83
g600
sg76
(lp607
S''
asbasbasbag69
(g85
g71
NtRp608
(dp609
g74
(dp610
sg83
g464
sg76
(lp611
g69
(g90
g71
NtRp612
(dp613
g74
(dp614
g94
g95
ssg83
g608
sg76
(lp615
g430
asbag69
(g90
g71
NtRp616
(dp617
g74
(dp618
g101
g102
ssg83
g608
sg76
(lp619
S':'
asbag69
(g90
g71
NtRp620
(dp621
g74
(dp622
sg83
g608
sg76
(lp623
g69
(g70
g71
NtRp624
(dp625
g74
(dp626
g82
I3
ssg83
g620
sg76
(lp627
S''
asbasbasbasbasbasbasbag69
(g85
g71
NtRp628
(dp629
g74
(dp630
sg83
g246
sg76
(lp631
g69
(g90
g71
NtRp632
(dp633
g74
(dp634
g94
g95
ssg83
g628
sg76
(lp635
S'session_id_randomwords'
p636
asbag69
(g90
g71
NtRp637
(dp638
g74
(dp639
g101
g102
ssg83
g628
sg76
(lp640
S':'
asbag69
(g90
g71
NtRp641
(dp642
g74
(dp643
sg83
g628
sg76
(lp644
g69
(g70
g71
NtRp645
(dp646
g74
(dp647
g82
I4
ssg83
g641
sg76
(lp648
g69
(g78
g71
NtRp649
(dp650
g74
(dp651
g82
I3
ssg83
Nsg76
(lp652
g69
(g85
g71
NtRp653
(dp654
g74
(dp655
sg83
g649
sg76
(lp656
g69
(g90
g71
NtRp657
(dp658
g74
(dp659
g94
g95
ssg83
g653
sg76
(lp660
g283
asbag69
(g90
g71
NtRp661
(dp662
g74
(dp663
g101
g102
ssg83
g653
sg76
(lp664
S':'
asbag69
(g90
g71
NtRp665
(dp666
g74
(dp667
sg83
g653
sg76
(lp668
g69
(g70
g71
NtRp669
(dp670
g74
(dp671
g82
I3
ssg83
g665
sg76
(lp672
S''
asbasbasbag69
(g85
g71
NtRp673
(dp674
g74
(dp675
sg83
g649
sg76
(lp676
g69
(g90
g71
NtRp677
(dp678
g74
(dp679
g94
g95
ssg83
g673
sg76
(lp680
g304
asbag69
(g90
g71
NtRp681
(dp682
g74
(dp683
g101
g102
ssg83
g673
sg76
(lp684
S':'
asbag69
(g90
g71
NtRp685
(dp686
g74
(dp687
sg83
g673
sg76
(lp688
g69
(g70
g71
NtRp689
(dp690
g74
(dp691
g82
I3
ssg83
g685
sg76
(lp692
S''
asbasbasbag69
(g85
g71
NtRp693
(dp694
g74
(dp695
sg83
g649
sg76
(lp696
g69
(g90
g71
NtRp697
(dp698
g74
(dp699
g94
g95
ssg83
g693
sg76
(lp700
g325
asbag69
(g90
g71
NtRp701
(dp702
g74
(dp703
g101
g102
ssg83
g693
sg76
(lp704
S':'
asbag69
(g90
g71
NtRp705
(dp706
g74
(dp707
sg83
g693
sg76
(lp708
g69
(g70
g71
NtRp709
(dp710
g74
(dp711
g82
I3
ssg83
g705
sg76
(lp712
S''
asbasbasbag69
(g85
g71
NtRp713
(dp714
g74
(dp715
sg83
g649
sg76
(lp716
g69
(g90
g71
NtRp717
(dp718
g74
(dp719
g94
g95
ssg83
g713
sg76
(lp720
g346
asbag69
(g90
g71
NtRp721
(dp722
g74
(dp723
g101
g102
ssg83
g713
sg76
(lp724
S':'
asbag69
(g90
g71
NtRp725
(dp726
g74
(dp727
sg83
g713
sg76
(lp728
g69
(g70
g71
NtRp729
(dp730
g74
(dp731
g82
I3
ssg83
g725
sg76
(lp732
S''
asbasbasbag69
(g85
g71
NtRp733
(dp734
g74
(dp735
sg83
g649
sg76
(lp736
g69
(g90
g71
NtRp737
(dp738
g74
(dp739
g94
g95
ssg83
g733
sg76
(lp740
g367
asbag69
(g90
g71
NtRp741
(dp742
g74
(dp743
g101
g102
ssg83
g733
sg76
(lp744
S':'
asbag69
(g90
g71
NtRp745
(dp746
g74
(dp747
sg83
g733
sg76
(lp748
g69
(g70
g71
NtRp749
(dp750
g74
(dp751
g82
I3
ssg83
g745
sg76
(lp752
S''
asbasbasbag69
(g85
g71
NtRp753
(dp754
g74
(dp755
sg83
g649
sg76
(lp756
g69
(g90
g71
NtRp757
(dp758
g74
(dp759
g94
g95
ssg83
g753
sg76
(lp760
g388
asbag69
(g90
g71
NtRp761
(dp762
g74
(dp763
g101
g102
ssg83
g753
sg76
(lp764
S':'
asbag69
(g90
g71
NtRp765
(dp766
g74
(dp767
sg83
g753
sg76
(lp768
g69
(g70
g71
NtRp769
(dp770
g74
(dp771
g82
I3
ssg83
g765
sg76
(lp772
S''
asbasbasbag69
(g85
g71
NtRp773
(dp774
g74
(dp775
sg83
g649
sg76
(lp776
g69
(g90
g71
NtRp777
(dp778
g74
(dp779
g94
g95
ssg83
g773
sg76
(lp780
g409
asbag69
(g90
g71
NtRp781
(dp782
g74
(dp783
g101
g102
ssg83
g773
sg76
(lp784
S':'
asbag69
(g90
g71
NtRp785
(dp786
g74
(dp787
sg83
g773
sg76
(lp788
g69
(g70
g71
NtRp789
(dp790
g74
(dp791
g82
I3
ssg83
g785
sg76
(lp792
S''
asbasbasbag69
(g85
g71
NtRp793
(dp794
g74
(dp795
sg83
g649
sg76
(lp796
g69
(g90
g71
NtRp797
(dp798
g74
(dp799
g94
g95
ssg83
g793
sg76
(lp800
g430
asbag69
(g90
g71
NtRp801
(dp802
g74
(dp803
g101
g102
ssg83
g793
sg76
(lp804
S':'
asbag69
(g90
g71
NtRp805
(dp806
g74
(dp807
sg83
g793
sg76
(lp808
g69
(g70
g71
NtRp809
(dp810
g74
(dp811
g82
I3
ssg83
g805
sg76
(lp812
S''
asbasbasbasbasbasbasbag69
(g85
g71
NtRp813
(dp814
g74
(dp815
sg83
g246
sg76
(lp816
g69
(g90
g71
NtRp817
(dp818
g74
(dp819
g94
g95
ssg83
g813
sg76
(lp820
S'session_id_welcome'
p821
asbag69
(g90
g71
NtRp822
(dp823
g74
(dp824
g101
g102
ssg83
g813
sg76
(lp825
S':'
asbag69
(g90
g71
NtRp826
(dp827
g74
(dp828
sg83
g813
sg76
(lp829
g69
(g70
g71
NtRp830
(dp831
g74
(dp832
g82
I4
ssg83
g826
sg76
(lp833
g69
(g78
g71
NtRp834
(dp835
g74
(dp836
g82
I3
ssg83
Nsg76
(lp837
g69
(g85
g71
NtRp838
(dp839
g74
(dp840
sg83
g834
sg76
(lp841
g69
(g90
g71
NtRp842
(dp843
g74
(dp844
g94
g95
ssg83
g838
sg76
(lp845
g283
asbag69
(g90
g71
NtRp846
(dp847
g74
(dp848
g101
g102
ssg83
g838
sg76
(lp849
S':'
asbag69
(g90
g71
NtRp850
(dp851
g74
(dp852
sg83
g838
sg76
(lp853
g69
(g70
g71
NtRp854
(dp855
g74
(dp856
g82
I3
ssg83
g850
sg76
(lp857
S''
asbasbasbag69
(g85
g71
NtRp858
(dp859
g74
(dp860
sg83
g834
sg76
(lp861
g69
(g90
g71
NtRp862
(dp863
g74
(dp864
g94
g95
ssg83
g858
sg76
(lp865
g304
asbag69
(g90
g71
NtRp866
(dp867
g74
(dp868
g101
g102
ssg83
g858
sg76
(lp869
S':'
asbag69
(g90
g71
NtRp870
(dp871
g74
(dp872
sg83
g858
sg76
(lp873
g69
(g70
g71
NtRp874
(dp875
g74
(dp876
g82
I3
ssg83
g870
sg76
(lp877
S''
asbasbasbag69
(g85
g71
NtRp878
(dp879
g74
(dp880
sg83
g834
sg76
(lp881
g69
(g90
g71
NtRp882
(dp883
g74
(dp884
g94
g95
ssg83
g878
sg76
(lp885
g325
asbag69
(g90
g71
NtRp886
(dp887
g74
(dp888
g101
g102
ssg83
g878
sg76
(lp889
S':'
asbag69
(g90
g71
NtRp890
(dp891
g74
(dp892
sg83
g878
sg76
(lp893
g69
(g70
g71
NtRp894
(dp895
g74
(dp896
g82
I3
ssg83
g890
sg76
(lp897
S''
asbasbasbag69
(g85
g71
NtRp898
(dp899
g74
(dp900
sg83
g834
sg76
(lp901
g69
(g90
g71
NtRp902
(dp903
g74
(dp904
g94
g95
ssg83
g898
sg76
(lp905
g346
asbag69
(g90
g71
NtRp906
(dp907
g74
(dp908
g101
g102
ssg83
g898
sg76
(lp909
S':'
asbag69
(g90
g71
NtRp910
(dp911
g74
(dp912
sg83
g898
sg76
(lp913
g69
(g70
g71
NtRp914
(dp915
g74
(dp916
g82
I3
ssg83
g910
sg76
(lp917
S''
asbasbasbag69
(g85
g71
NtRp918
(dp919
g74
(dp920
sg83
g834
sg76
(lp921
g69
(g90
g71
NtRp922
(dp923
g74
(dp924
g94
g95
ssg83
g918
sg76
(lp925
g367
asbag69
(g90
g71
NtRp926
(dp927
g74
(dp928
g101
g102
ssg83
g918
sg76
(lp929
S':'
asbag69
(g90
g71
NtRp930
(dp931
g74
(dp932
sg83
g918
sg76
(lp933
g69
(g70
g71
NtRp934
(dp935
g74
(dp936
g82
I3
ssg83
g930
sg76
(lp937
S''
asbasbasbag69
(g85
g71
NtRp938
(dp939
g74
(dp940
sg83
g834
sg76
(lp941
g69
(g90
g71
NtRp942
(dp943
g74
(dp944
g94
g95
ssg83
g938
sg76
(lp945
g388
asbag69
(g90
g71
NtRp946
(dp947
g74
(dp948
g101
g102
ssg83
g938
sg76
(lp949
S':'
asbag69
(g90
g71
NtRp950
(dp951
g74
(dp952
sg83
g938
sg76
(lp953
g69
(g70
g71
NtRp954
(dp955
g74
(dp956
g82
I3
ssg83
g950
sg76
(lp957
S''
asbasbasbag69
(g85
g71
NtRp958
(dp959
g74
(dp960
sg83
g834
sg76
(lp961
g69
(g90
g71
NtRp962
(dp963
g74
(dp964
g94
g95
ssg83
g958
sg76
(lp965
g409
asbag69
(g90
g71
NtRp966
(dp967
g74
(dp968
g101
g102
ssg83
g958
sg76
(lp969
S':'
asbag69
(g90
g71
NtRp970
(dp971
g74
(dp972
sg83
g958
sg76
(lp973
g69
(g70
g71
NtRp974
(dp975
g74
(dp976
g82
I3
ssg83
g970
sg76
(lp977
S''
asbasbasbag69
(g85
g71
NtRp978
(dp979
g74
(dp980
sg83
g834
sg76
(lp981
g69
(g90
g71
NtRp982
(dp983
g74
(dp984
g94
g95
ssg83
g978
sg76
(lp985
g430
asbag69
(g90
g71
NtRp986
(dp987
g74
(dp988
g101
g102
ssg83
g978
sg76
(lp989
S':'
asbag69
(g90
g71
NtRp990
(dp991
g74
(dp992
sg83
g978
sg76
(lp993
g69
(g70
g71
NtRp994
(dp995
g74
(dp996
g82
I3
ssg83
g990
sg76
(lp997
S''
asbasbasbasbasbasbasbasbasbasbasbag69
(g85
g71
NtRp998
(dp999
g74
(dp1000
sg83
g79
sg76
(lp1001
g69
(g90
g71
NtRp1002
(dp1003
g74
(dp1004
g94
g95
ssg83
g998
sg76
(lp1005
S'env'
p1006
asbag69
(g90
g71
NtRp1007
(dp1008
g74
(dp1009
g101
g102
ssg83
g998
sg76
(lp1010
S':'
asbag69
(g90
g71
NtRp1011
(dp1012
g74
(dp1013
sg83
g998
sg76
(lp1014
g69
(g70
g71
NtRp1015
(dp1016
g74
(dp1017
g82
I5
ssg83
g1011
sg76
(lp1018
g69
(g78
g71
NtRp1019
(dp1020
g74
(dp1021
g82
I4
ssg83
Nsg76
(lp1022
g69
(g85
g71
NtRp1023
(dp1024
g74
(dp1025
sg83
g1019
sg76
(lp1026
g69
(g90
g71
NtRp1027
(dp1028
g74
(dp1029
g94
g95
ssg83
g1023
sg76
(lp1030
S'app_folders'
p1031
asbag69
(g90
g71
NtRp1032
(dp1033
g74
(dp1034
g101
g102
ssg83
g1023
sg76
(lp1035
S':'
asbag69
(g90
g71
NtRp1036
(dp1037
g74
(dp1038
sg83
g1023
sg76
(lp1039
g69
(g70
g71
NtRp1040
(dp1041
g74
(dp1042
g82
I4
ssg83
g1036
sg76
(lp1043
S"set(['/Users/emir/Documents/beardcode/web2py/applications/welcome/', '/Users/emir/Documents/beardcode/web2py/applications/admin/', '/Users/emir/Documents/beardcode/web2py/applications/contador/'])"
p1044
asbasbasbag69
(g85
g71
NtRp1045
(dp1046
g74
(dp1047
sg83
g1019
sg76
(lp1048
g69
(g90
g71
NtRp1049
(dp1050
g74
(dp1051
g94
g95
ssg83
g1045
sg76
(lp1052
S'applications_parent'
p1053
asbag69
(g90
g71
NtRp1054
(dp1055
g74
(dp1056
g101
g102
ssg83
g1045
sg76
(lp1057
S':'
asbag69
(g90
g71
NtRp1058
(dp1059
g74
(dp1060
sg83
g1045
sg76
(lp1061
g69
(g70
g71
NtRp1062
(dp1063
g74
(dp1064
g82
I4
ssg83
g1058
sg76
(lp1065
S'/Users/emir/Documents/beardcode/web2py'
p1066
asbasbasbag69
(g85
g71
NtRp1067
(dp1068
g74
(dp1069
sg83
g1019
sg76
(lp1070
g69
(g90
g71
NtRp1071
(dp1072
g74
(dp1073
g94
g95
ssg83
g1067
sg76
(lp1074
S'db_sessions'
p1075
asbag69
(g90
g71
NtRp1076
(dp1077
g74
(dp1078
g101
g102
ssg83
g1067
sg76
(lp1079
S':'
asbag69
(g90
g71
NtRp1080
(dp1081
g74
(dp1082
sg83
g1067
sg76
(lp1083
g69
(g70
g71
NtRp1084
(dp1085
g74
(dp1086
g82
I4
ssg83
g1080
sg76
(lp1087
S'set([])'
p1088
asbasbasbag69
(g85
g71
NtRp1089
(dp1090
g74
(dp1091
sg83
g1019
sg76
(lp1092
g69
(g90
g71
NtRp1093
(dp1094
g74
(dp1095
g94
g95
ssg83
g1089
sg76
(lp1096
S'debugging'
p1097
asbag69
(g90
g71
NtRp1098
(dp1099
g74
(dp1100
g101
g102
ssg83
g1089
sg76
(lp1101
S':'
asbag69
(g90
g71
NtRp1102
(dp1103
g74
(dp1104
sg83
g1089
sg76
(lp1105
g69
(g70
g71
NtRp1106
(dp1107
g74
(dp1108
g82
I4
ssg83
g1102
sg76
(lp1109
g112
asbasbasbag69
(g85
g71
NtRp1110
(dp1111
g74
(dp1112
sg83
g1019
sg76
(lp1113
g69
(g90
g71
NtRp1114
(dp1115
g74
(dp1116
g94
g95
ssg83
g1110
sg76
(lp1117
S'document_root'
p1118
asbag69
(g90
g71
NtRp1119
(dp1120
g74
(dp1121
g101
g102
ssg83
g1110
sg76
(lp1122
S':'
asbag69
(g90
g71
NtRp1123
(dp1124
g74
(dp1125
sg83
g1110
sg76
(lp1126
g69
(g70
g71
NtRp1127
(dp1128
g74
(dp1129
g82
I4
ssg83
g1123
sg76
(lp1130
S'/Library/WebServer/Documents'
p1131
asbasbasbag69
(g85
g71
NtRp1132
(dp1133
g74
(dp1134
sg83
g1019
sg76
(lp1135
g69
(g90
g71
NtRp1136
(dp1137
g74
(dp1138
g94
g95
ssg83
g1132
sg76
(lp1139
S'gateway_interface'
p1140
asbag69
(g90
g71
NtRp1141
(dp1142
g74
(dp1143
g101
g102
ssg83
g1132
sg76
(lp1144
S':'
asbag69
(g90
g71
NtRp1145
(dp1146
g74
(dp1147
sg83
g1132
sg76
(lp1148
g69
(g70
g71
NtRp1149
(dp1150
g74
(dp1151
g82
I4
ssg83
g1145
sg76
(lp1152
S'CGI/1.1'
p1153
asbasbasbag69
(g85
g71
NtRp1154
(dp1155
g74
(dp1156
sg83
g1019
sg76
(lp1157
g69
(g90
g71
NtRp1158
(dp1159
g74
(dp1160
g94
g95
ssg83
g1154
sg76
(lp1161
S'gluon_parent'
p1162
asbag69
(g90
g71
NtRp1163
(dp1164
g74
(dp1165
g101
g102
ssg83
g1154
sg76
(lp1166
S':'
asbag69
(g90
g71
NtRp1167
(dp1168
g74
(dp1169
sg83
g1154
sg76
(lp1170
g69
(g70
g71
NtRp1171
(dp1172
g74
(dp1173
g82
I4
ssg83
g1167
sg76
(lp1174
g1066
asbasbasbag69
(g85
g71
NtRp1175
(dp1176
g74
(dp1177
sg83
g1019
sg76
(lp1178
g69
(g90
g71
NtRp1179
(dp1180
g74
(dp1181
g94
g95
ssg83
g1175
sg76
(lp1182
S'http_accept'
p1183
asbag69
(g90
g71
NtRp1184
(dp1185
g74
(dp1186
g101
g102
ssg83
g1175
sg76
(lp1187
S':'
asbag69
(g90
g71
NtRp1188
(dp1189
g74
(dp1190
sg83
g1175
sg76
(lp1191
g69
(g70
g71
NtRp1192
(dp1193
g74
(dp1194
g82
I4
ssg83
g1188
sg76
(lp1195
S'text/html,application/xhtml+xml,application/xml;q=0.9,*/*;q=0.8'
p1196
asbasbasbag69
(g85
g71
NtRp1197
(dp1198
g74
(dp1199
sg83
g1019
sg76
(lp1200
g69
(g90
g71
NtRp1201
(dp1202
g74
(dp1203
g94
g95
ssg83
g1197
sg76
(lp1204
S'http_accept_charset'
p1205
asbag69
(g90
g71
NtRp1206
(dp1207
g74
(dp1208
g101
g102
ssg83
g1197
sg76
(lp1209
S':'
asbag69
(g90
g71
NtRp1210
(dp1211
g74
(dp1212
sg83
g1197
sg76
(lp1213
g69
(g70
g71
NtRp1214
(dp1215
g74
(dp1216
g82
I4
ssg83
g1210
sg76
(lp1217
S'ISO-8859-1,utf-8;q=0.7,*;q=0.3'
p1218
asbasbasbag69
(g85
g71
NtRp1219
(dp1220
g74
(dp1221
sg83
g1019
sg76
(lp1222
g69
(g90
g71
NtRp1223
(dp1224
g74
(dp1225
g94
g95
ssg83
g1219
sg76
(lp1226
S'http_accept_encoding'
p1227
asbag69
(g90
g71
NtRp1228
(dp1229
g74
(dp1230
g101
g102
ssg83
g1219
sg76
(lp1231
S':'
asbag69
(g90
g71
NtRp1232
(dp1233
g74
(dp1234
sg83
g1219
sg76
(lp1235
g69
(g70
g71
NtRp1236
(dp1237
g74
(dp1238
g82
I4
ssg83
g1232
sg76
(lp1239
S'gzip,deflate,sdch'
p1240
asbasbasbag69
(g85
g71
NtRp1241
(dp1242
g74
(dp1243
sg83
g1019
sg76
(lp1244
g69
(g90
g71
NtRp1245
(dp1246
g74
(dp1247
g94
g95
ssg83
g1241
sg76
(lp1248
S'http_accept_language'
p1249
asbag69
(g90
g71
NtRp1250
(dp1251
g74
(dp1252
g101
g102
ssg83
g1241
sg76
(lp1253
S':'
asbag69
(g90
g71
NtRp1254
(dp1255
g74
(dp1256
sg83
g1241
sg76
(lp1257
g69
(g70
g71
NtRp1258
(dp1259
g74
(dp1260
g82
I4
ssg83
g1254
sg76
(lp1261
S'es-ES,es;q=0.8'
p1262
asbasbasbag69
(g85
g71
NtRp1263
(dp1264
g74
(dp1265
sg83
g1019
sg76
(lp1266
g69
(g90
g71
NtRp1267
(dp1268
g74
(dp1269
g94
g95
ssg83
g1263
sg76
(lp1270
S'http_cache_control'
p1271
asbag69
(g90
g71
NtRp1272
(dp1273
g74
(dp1274
g101
g102
ssg83
g1263
sg76
(lp1275
S':'
asbag69
(g90
g71
NtRp1276
(dp1277
g74
(dp1278
sg83
g1263
sg76
(lp1279
g69
(g70
g71
NtRp1280
(dp1281
g74
(dp1282
g82
I4
ssg83
g1276
sg76
(lp1283
S'max-age=0'
p1284
asbasbasbag69
(g85
g71
NtRp1285
(dp1286
g74
(dp1287
sg83
g1019
sg76
(lp1288
g69
(g90
g71
NtRp1289
(dp1290
g74
(dp1291
g94
g95
ssg83
g1285
sg76
(lp1292
S'http_connection'
p1293
asbag69
(g90
g71
NtRp1294
(dp1295
g74
(dp1296
g101
g102
ssg83
g1285
sg76
(lp1297
S':'
asbag69
(g90
g71
NtRp1298
(dp1299
g74
(dp1300
sg83
g1285
sg76
(lp1301
g69
(g70
g71
NtRp1302
(dp1303
g74
(dp1304
g82
I4
ssg83
g1298
sg76
(lp1305
S'keep-alive'
p1306
asbasbasbag69
(g85
g71
NtRp1307
(dp1308
g74
(dp1309
sg83
g1019
sg76
(lp1310
g69
(g90
g71
NtRp1311
(dp1312
g74
(dp1313
g94
g95
ssg83
g1307
sg76
(lp1314
S'http_cookie'
p1315
asbag69
(g90
g71
NtRp1316
(dp1317
g74
(dp1318
g101
g102
ssg83
g1307
sg76
(lp1319
S':'
asbag69
(g90
g71
NtRp1320
(dp1321
g74
(dp1322
sg83
g1307
sg76
(lp1323
g69
(g70
g71
NtRp1324
(dp1325
g74
(dp1326
g82
I4
ssg83
g1320
sg76
(lp1327
S'session_id_randomwords=127.0.0.1-1fe5eb3c-05ae-47c4-864c-4c9f43ac620c; session_id_welcome=127.0.0.1-26ca6cd3-84d7-4753-ad50-3b7ae1bcfc78; session_id_admin=127.0.0.1-eb1bfc92-b1d7-40f5-bac2-0727bba915fa; session_id_contador=127.0.0.1-2b69a554-5d73-450d-a1a3-2f7111772fbb'
p1328
asbasbasbag69
(g85
g71
NtRp1329
(dp1330
g74
(dp1331
sg83
g1019
sg76
(lp1332
g69
(g90
g71
NtRp1333
(dp1334
g74
(dp1335
g94
g95
ssg83
g1329
sg76
(lp1336
S'http_host'
p1337
asbag69
(g90
g71
NtRp1338
(dp1339
g74
(dp1340
g101
g102
ssg83
g1329
sg76
(lp1341
S':'
asbag69
(g90
g71
NtRp1342
(dp1343
g74
(dp1344
sg83
g1329
sg76
(lp1345
g69
(g70
g71
NtRp1346
(dp1347
g74
(dp1348
g82
I4
ssg83
g1342
sg76
(lp1349
S'web2py'
p1350
asbasbasbag69
(g85
g71
NtRp1351
(dp1352
g74
(dp1353
sg83
g1019
sg76
(lp1354
g69
(g90
g71
NtRp1355
(dp1356
g74
(dp1357
g94
g95
ssg83
g1351
sg76
(lp1358
S'http_user_agent'
p1359
asbag69
(g90
g71
NtRp1360
(dp1361
g74
(dp1362
g101
g102
ssg83
g1351
sg76
(lp1363
S':'
asbag69
(g90
g71
NtRp1364
(dp1365
g74
(dp1366
sg83
g1351
sg76
(lp1367
g69
(g70
g71
NtRp1368
(dp1369
g74
(dp1370
g82
I4
ssg83
g1364
sg76
(lp1371
S'Mozilla/5.0 (Macintosh; Intel Mac OS X 10_8_0) AppleWebKit/537.1 (KHTML, like Gecko) Chrome/21.0.1180.57 Safari/537.1'
p1372
asbasbasbag69
(g85
g71
NtRp1373
(dp1374
g74
(dp1375
sg83
g1019
sg76
(lp1376
g69
(g90
g71
NtRp1377
(dp1378
g74
(dp1379
g94
g95
ssg83
g1373
sg76
(lp1380
S'is_jython'
p1381
asbag69
(g90
g71
NtRp1382
(dp1383
g74
(dp1384
g101
g102
ssg83
g1373
sg76
(lp1385
S':'
asbag69
(g90
g71
NtRp1386
(dp1387
g74
(dp1388
sg83
g1373
sg76
(lp1389
g69
(g70
g71
NtRp1390
(dp1391
g74
(dp1392
g82
I4
ssg83
g1386
sg76
(lp1393
g112
asbasbasbag69
(g85
g71
NtRp1394
(dp1395
g74
(dp1396
sg83
g1019
sg76
(lp1397
g69
(g90
g71
NtRp1398
(dp1399
g74
(dp1400
g94
g95
ssg83
g1394
sg76
(lp1401
S'is_pypy'
p1402
asbag69
(g90
g71
NtRp1403
(dp1404
g74
(dp1405
g101
g102
ssg83
g1394
sg76
(lp1406
S':'
asbag69
(g90
g71
NtRp1407
(dp1408
g74
(dp1409
sg83
g1394
sg76
(lp1410
g69
(g70
g71
NtRp1411
(dp1412
g74
(dp1413
g82
I4
ssg83
g1407
sg76
(lp1414
g112
asbasbasbag69
(g85
g71
NtRp1415
(dp1416
g74
(dp1417
sg83
g1019
sg76
(lp1418
g69
(g90
g71
NtRp1419
(dp1420
g74
(dp1421
g94
g95
ssg83
g1415
sg76
(lp1422
S'mod_wsgi_application_group'
p1423
asbag69
(g90
g71
NtRp1424
(dp1425
g74
(dp1426
g101
g102
ssg83
g1415
sg76
(lp1427
S':'
asbag69
(g90
g71
NtRp1428
(dp1429
g74
(dp1430
sg83
g1415
sg76
(lp1431
g69
(g70
g71
NtRp1432
(dp1433
g74
(dp1434
g82
I4
ssg83
g1428
sg76
(lp1435
S'web2py|'
p1436
asbasbasbag69
(g85
g71
NtRp1437
(dp1438
g74
(dp1439
sg83
g1019
sg76
(lp1440
g69
(g90
g71
NtRp1441
(dp1442
g74
(dp1443
g94
g95
ssg83
g1437
sg76
(lp1444
S'mod_wsgi_callable_object'
p1445
asbag69
(g90
g71
NtRp1446
(dp1447
g74
(dp1448
g101
g102
ssg83
g1437
sg76
(lp1449
S':'
asbag69
(g90
g71
NtRp1450
(dp1451
g74
(dp1452
sg83
g1437
sg76
(lp1453
g69
(g70
g71
NtRp1454
(dp1455
g74
(dp1456
g82
I4
ssg83
g1450
sg76
(lp1457
S'application'
p1458
asbasbasbag69
(g85
g71
NtRp1459
(dp1460
g74
(dp1461
sg83
g1019
sg76
(lp1462
g69
(g90
g71
NtRp1463
(dp1464
g74
(dp1465
g94
g95
ssg83
g1459
sg76
(lp1466
S'mod_wsgi_handler_script'
p1467
asbag69
(g90
g71
NtRp1468
(dp1469
g74
(dp1470
g101
g102
ssg83
g1459
sg76
(lp1471
S':'
asbag69
(g90
g71
NtRp1472
(dp1473
g74
(dp1474
sg83
g1459
sg76
(lp1475
g69
(g70
g71
NtRp1476
(dp1477
g74
(dp1478
g82
I4
ssg83
g1472
sg76
(lp1479
S''
asbasbasbag69
(g85
g71
NtRp1480
(dp1481
g74
(dp1482
sg83
g1019
sg76
(lp1483
g69
(g90
g71
NtRp1484
(dp1485
g74
(dp1486
g94
g95
ssg83
g1480
sg76
(lp1487
S'mod_wsgi_input_chunked'
p1488
asbag69
(g90
g71
NtRp1489
(dp1490
g74
(dp1491
g101
g102
ssg83
g1480
sg76
(lp1492
S':'
asbag69
(g90
g71
NtRp1493
(dp1494
g74
(dp1495
sg83
g1480
sg76
(lp1496
g69
(g70
g71
NtRp1497
(dp1498
g74
(dp1499
g82
I4
ssg83
g1493
sg76
(lp1500
S'0'
asbasbasbag69
(g85
g71
NtRp1501
(dp1502
g74
(dp1503
sg83
g1019
sg76
(lp1504
g69
(g90
g71
NtRp1505
(dp1506
g74
(dp1507
g94
g95
ssg83
g1501
sg76
(lp1508
S'mod_wsgi_listener_host'
p1509
asbag69
(g90
g71
NtRp1510
(dp1511
g74
(dp1512
g101
g102
ssg83
g1501
sg76
(lp1513
S':'
asbag69
(g90
g71
NtRp1514
(dp1515
g74
(dp1516
sg83
g1501
sg76
(lp1517
g69
(g70
g71
NtRp1518
(dp1519
g74
(dp1520
g82
I4
ssg83
g1514
sg76
(lp1521
S''
asbasbasbag69
(g85
g71
NtRp1522
(dp1523
g74
(dp1524
sg83
g1019
sg76
(lp1525
g69
(g90
g71
NtRp1526
(dp1527
g74
(dp1528
g94
g95
ssg83
g1522
sg76
(lp1529
S'mod_wsgi_listener_port'
p1530
asbag69
(g90
g71
NtRp1531
(dp1532
g74
(dp1533
g101
g102
ssg83
g1522
sg76
(lp1534
S':'
asbag69
(g90
g71
NtRp1535
(dp1536
g74
(dp1537
sg83
g1522
sg76
(lp1538
g69
(g70
g71
NtRp1539
(dp1540
g74
(dp1541
g82
I4
ssg83
g1535
sg76
(lp1542
S'80'
p1543
asbasbasbag69
(g85
g71
NtRp1544
(dp1545
g74
(dp1546
sg83
g1019
sg76
(lp1547
g69
(g90
g71
NtRp1548
(dp1549
g74
(dp1550
g94
g95
ssg83
g1544
sg76
(lp1551
S'mod_wsgi_process_group'
p1552
asbag69
(g90
g71
NtRp1553
(dp1554
g74
(dp1555
g101
g102
ssg83
g1544
sg76
(lp1556
S':'
asbag69
(g90
g71
NtRp1557
(dp1558
g74
(dp1559
sg83
g1544
sg76
(lp1560
g69
(g70
g71
NtRp1561
(dp1562
g74
(dp1563
g82
I4
ssg83
g1557
sg76
(lp1564
S''
asbasbasbag69
(g85
g71
NtRp1565
(dp1566
g74
(dp1567
sg83
g1019
sg76
(lp1568
g69
(g90
g71
NtRp1569
(dp1570
g74
(dp1571
g94
g95
ssg83
g1565
sg76
(lp1572
S'mod_wsgi_request_handler'
p1573
asbag69
(g90
g71
NtRp1574
(dp1575
g74
(dp1576
g101
g102
ssg83
g1565
sg76
(lp1577
S':'
asbag69
(g90
g71
NtRp1578
(dp1579
g74
(dp1580
sg83
g1565
sg76
(lp1581
g69
(g70
g71
NtRp1582
(dp1583
g74
(dp1584
g82
I4
ssg83
g1578
sg76
(lp1585
S'wsgi-script'
p1586
asbasbasbag69
(g85
g71
NtRp1587
(dp1588
g74
(dp1589
sg83
g1019
sg76
(lp1590
g69
(g90
g71
NtRp1591
(dp1592
g74
(dp1593
g94
g95
ssg83
g1587
sg76
(lp1594
S'mod_wsgi_script_reloading'
p1595
asbag69
(g90
g71
NtRp1596
(dp1597
g74
(dp1598
g101
g102
ssg83
g1587
sg76
(lp1599
S':'
asbag69
(g90
g71
NtRp1600
(dp1601
g74
(dp1602
sg83
g1587
sg76
(lp1603
g69
(g70
g71
NtRp1604
(dp1605
g74
(dp1606
g82
I4
ssg83
g1600
sg76
(lp1607
S'1'
asbasbasbag69
(g85
g71
NtRp1608
(dp1609
g74
(dp1610
sg83
g1019
sg76
(lp1611
g69
(g90
g71
NtRp1612
(dp1613
g74
(dp1614
g94
g95
ssg83
g1608
sg76
(lp1615
S'mod_wsgi_version'
p1616
asbag69
(g90
g71
NtRp1617
(dp1618
g74
(dp1619
g101
g102
ssg83
g1608
sg76
(lp1620
S':'
asbag69
(g90
g71
NtRp1621
(dp1622
g74
(dp1623
sg83
g1608
sg76
(lp1624
g69
(g70
g71
NtRp1625
(dp1626
g74
(dp1627
g82
I4
ssg83
g1621
sg76
(lp1628
g69
(g78
g71
NtRp1629
(dp1630
g74
(dp1631
g82
I3
ssg83
Nsg76
(lp1632
g69
(g85
g71
NtRp1633
(dp1634
g74
(dp1635
sg83
g1629
sg76
(lp1636
g69
(g90
g71
NtRp1637
(dp1638
g74
(dp1639
sg83
g1633
sg76
(lp1640
g69
(g70
g71
NtRp1641
(dp1642
g74
(dp1643
g82
I3
ssg83
g1637
sg76
(lp1644
S'3'
asbasbasbag69
(g85
g71
NtRp1645
(dp1646
g74
(dp1647
sg83
g1629
sg76
(lp1648
g69
(g90
g71
NtRp1649
(dp1650
g74
(dp1651
sg83
g1645
sg76
(lp1652
g69
(g70
g71
NtRp1653
(dp1654
g74
(dp1655
g82
I3
ssg83
g1649
sg76
(lp1656
S'3'
asbasbasbasbasbasbasbag69
(g85
g71
NtRp1657
(dp1658
g74
(dp1659
sg83
g1019
sg76
(lp1660
g69
(g90
g71
NtRp1661
(dp1662
g74
(dp1663
g94
g95
ssg83
g1657
sg76
(lp1664
S'path_info'
p1665
asbag69
(g90
g71
NtRp1666
(dp1667
g74
(dp1668
g101
g102
ssg83
g1657
sg76
(lp1669
S':'
asbag69
(g90
g71
NtRp1670
(dp1671
g74
(dp1672
sg83
g1657
sg76
(lp1673
g69
(g70
g71
NtRp1674
(dp1675
g74
(dp1676
g82
I4
ssg83
g1670
sg76
(lp1677
S'/contador/default/index'
p1678
asbasbasbag69
(g85
g71
NtRp1679
(dp1680
g74
(dp1681
sg83
g1019
sg76
(lp1682
g69
(g90
g71
NtRp1683
(dp1684
g74
(dp1685
g94
g95
ssg83
g1679
sg76
(lp1686
S'path_translated'
p1687
asbag69
(g90
g71
NtRp1688
(dp1689
g74
(dp1690
g101
g102
ssg83
g1679
sg76
(lp1691
S':'
asbag69
(g90
g71
NtRp1692
(dp1693
g74
(dp1694
sg83
g1679
sg76
(lp1695
g69
(g70
g71
NtRp1696
(dp1697
g74
(dp1698
g82
I4
ssg83
g1692
sg76
(lp1699
S'/Users/emir/Documents/beardcode/web2py/wsgihandler.py/contador/default/index'
p1700
asbasbasbag69
(g85
g71
NtRp1701
(dp1702
g74
(dp1703
sg83
g1019
sg76
(lp1704
g69
(g90
g71
NtRp1705
(dp1706
g74
(dp1707
g94
g95
ssg83
g1701
sg76
(lp1708
S'query_string'
p1709
asbag69
(g90
g71
NtRp1710
(dp1711
g74
(dp1712
g101
g102
ssg83
g1701
sg76
(lp1713
S':'
asbag69
(g90
g71
NtRp1714
(dp1715
g74
(dp1716
sg83
g1701
sg76
(lp1717
g69
(g70
g71
NtRp1718
(dp1719
g74
(dp1720
g82
I4
ssg83
g1714
sg76
(lp1721
S''
asbasbasbag69
(g85
g71
NtRp1722
(dp1723
g74
(dp1724
sg83
g1019
sg76
(lp1725
g69
(g90
g71
NtRp1726
(dp1727
g74
(dp1728
g94
g95
ssg83
g1722
sg76
(lp1729
S'remote_addr'
p1730
asbag69
(g90
g71
NtRp1731
(dp1732
g74
(dp1733
g101
g102
ssg83
g1722
sg76
(lp1734
S':'
asbag69
(g90
g71
NtRp1735
(dp1736
g74
(dp1737
sg83
g1722
sg76
(lp1738
g69
(g70
g71
NtRp1739
(dp1740
g74
(dp1741
g82
I4
ssg83
g1735
sg76
(lp1742
g202
asbasbasbag69
(g85
g71
NtRp1743
(dp1744
g74
(dp1745
sg83
g1019
sg76
(lp1746
g69
(g90
g71
NtRp1747
(dp1748
g74
(dp1749
g94
g95
ssg83
g1743
sg76
(lp1750
S'remote_port'
p1751
asbag69
(g90
g71
NtRp1752
(dp1753
g74
(dp1754
g101
g102
ssg83
g1743
sg76
(lp1755
S':'
asbag69
(g90
g71
NtRp1756
(dp1757
g74
(dp1758
sg83
g1743
sg76
(lp1759
g69
(g70
g71
NtRp1760
(dp1761
g74
(dp1762
g82
I4
ssg83
g1756
sg76
(lp1763
S'53323'
p1764
asbasbasbag69
(g85
g71
NtRp1765
(dp1766
g74
(dp1767
sg83
g1019
sg76
(lp1768
g69
(g90
g71
NtRp1769
(dp1770
g74
(dp1771
g94
g95
ssg83
g1765
sg76
(lp1772
S'request_method'
p1773
asbag69
(g90
g71
NtRp1774
(dp1775
g74
(dp1776
g101
g102
ssg83
g1765
sg76
(lp1777
S':'
asbag69
(g90
g71
NtRp1778
(dp1779
g74
(dp1780
sg83
g1765
sg76
(lp1781
g69
(g70
g71
NtRp1782
(dp1783
g74
(dp1784
g82
I4
ssg83
g1778
sg76
(lp1785
S'GET'
p1786
asbasbasbag69
(g85
g71
NtRp1787
(dp1788
g74
(dp1789
sg83
g1019
sg76
(lp1790
g69
(g90
g71
NtRp1791
(dp1792
g74
(dp1793
g94
g95
ssg83
g1787
sg76
(lp1794
S'request_uri'
p1795
asbag69
(g90
g71
NtRp1796
(dp1797
g74
(dp1798
g101
g102
ssg83
g1787
sg76
(lp1799
S':'
asbag69
(g90
g71
NtRp1800
(dp1801
g74
(dp1802
sg83
g1787
sg76
(lp1803
g69
(g70
g71
NtRp1804
(dp1805
g74
(dp1806
g82
I4
ssg83
g1800
sg76
(lp1807
S'/contador/default/index'
p1808
asbasbasbag69
(g85
g71
NtRp1809
(dp1810
g74
(dp1811
sg83
g1019
sg76
(lp1812
g69
(g90
g71
NtRp1813
(dp1814
g74
(dp1815
g94
g95
ssg83
g1809
sg76
(lp1816
S'script_filename'
p1817
asbag69
(g90
g71
NtRp1818
(dp1819
g74
(dp1820
g101
g102
ssg83
g1809
sg76
(lp1821
S':'
asbag69
(g90
g71
NtRp1822
(dp1823
g74
(dp1824
sg83
g1809
sg76
(lp1825
g69
(g70
g71
NtRp1826
(dp1827
g74
(dp1828
g82
I4
ssg83
g1822
sg76
(lp1829
S'/Users/emir/Documents/beardcode/web2py/wsgihandler.py'
p1830
asbasbasbag69
(g85
g71
NtRp1831
(dp1832
g74
(dp1833
sg83
g1019
sg76
(lp1834
g69
(g90
g71
NtRp1835
(dp1836
g74
(dp1837
g94
g95
ssg83
g1831
sg76
(lp1838
S'script_name'
p1839
asbag69
(g90
g71
NtRp1840
(dp1841
g74
(dp1842
g101
g102
ssg83
g1831
sg76
(lp1843
S':'
asbag69
(g90
g71
NtRp1844
(dp1845
g74
(dp1846
sg83
g1831
sg76
(lp1847
g69
(g70
g71
NtRp1848
(dp1849
g74
(dp1850
g82
I4
ssg83
g1844
sg76
(lp1851
S''
asbasbasbag69
(g85
g71
NtRp1852
(dp1853
g74
(dp1854
sg83
g1019
sg76
(lp1855
g69
(g90
g71
NtRp1856
(dp1857
g74
(dp1858
g94
g95
ssg83
g1852
sg76
(lp1859
S'server_addr'
p1860
asbag69
(g90
g71
NtRp1861
(dp1862
g74
(dp1863
g101
g102
ssg83
g1852
sg76
(lp1864
S':'
asbag69
(g90
g71
NtRp1865
(dp1866
g74
(dp1867
sg83
g1852
sg76
(lp1868
g69
(g70
g71
NtRp1869
(dp1870
g74
(dp1871
g82
I4
ssg83
g1865
sg76
(lp1872
S'127.0.0.1'
p1873
asbasbasbag69
(g85
g71
NtRp1874
(dp1875
g74
(dp1876
sg83
g1019
sg76
(lp1877
g69
(g90
g71
NtRp1878
(dp1879
g74
(dp1880
g94
g95
ssg83
g1874
sg76
(lp1881
S'server_admin'
p1882
asbag69
(g90
g71
NtRp1883
(dp1884
g74
(dp1885
g101
g102
ssg83
g1874
sg76
(lp1886
S':'
asbag69
(g90
g71
NtRp1887
(dp1888
g74
(dp1889
sg83
g1874
sg76
(lp1890
g69
(g70
g71
NtRp1891
(dp1892
g74
(dp1893
g82
I4
ssg83
g1887
sg76
(lp1894
S'you@example.com'
p1895
asbasbasbag69
(g85
g71
NtRp1896
(dp1897
g74
(dp1898
sg83
g1019
sg76
(lp1899
g69
(g90
g71
NtRp1900
(dp1901
g74
(dp1902
g94
g95
ssg83
g1896
sg76
(lp1903
S'server_name'
p1904
asbag69
(g90
g71
NtRp1905
(dp1906
g74
(dp1907
g101
g102
ssg83
g1896
sg76
(lp1908
S':'
asbag69
(g90
g71
NtRp1909
(dp1910
g74
(dp1911
sg83
g1896
sg76
(lp1912
g69
(g70
g71
NtRp1913
(dp1914
g74
(dp1915
g82
I4
ssg83
g1909
sg76
(lp1916
S'web2py'
p1917
asbasbasbag69
(g85
g71
NtRp1918
(dp1919
g74
(dp1920
sg83
g1019
sg76
(lp1921
g69
(g90
g71
NtRp1922
(dp1923
g74
(dp1924
g94
g95
ssg83
g1918
sg76
(lp1925
S'server_port'
p1926
asbag69
(g90
g71
NtRp1927
(dp1928
g74
(dp1929
g101
g102
ssg83
g1918
sg76
(lp1930
S':'
asbag69
(g90
g71
NtRp1931
(dp1932
g74
(dp1933
sg83
g1918
sg76
(lp1934
g69
(g70
g71
NtRp1935
(dp1936
g74
(dp1937
g82
I4
ssg83
g1931
sg76
(lp1938
S'80'
p1939
asbasbasbag69
(g85
g71
NtRp1940
(dp1941
g74
(dp1942
sg83
g1019
sg76
(lp1943
g69
(g90
g71
NtRp1944
(dp1945
g74
(dp1946
g94
g95
ssg83
g1940
sg76
(lp1947
S'server_protocol'
p1948
asbag69
(g90
g71
NtRp1949
(dp1950
g74
(dp1951
g101
g102
ssg83
g1940
sg76
(lp1952
S':'
asbag69
(g90
g71
NtRp1953
(dp1954
g74
(dp1955
sg83
g1940
sg76
(lp1956
g69
(g70
g71
NtRp1957
(dp1958
g74
(dp1959
g82
I4
ssg83
g1953
sg76
(lp1960
S'HTTP/1.1'
p1961
asbasbasbag69
(g85
g71
NtRp1962
(dp1963
g74
(dp1964
sg83
g1019
sg76
(lp1965
g69
(g90
g71
NtRp1966
(dp1967
g74
(dp1968
g94
g95
ssg83
g1962
sg76
(lp1969
S'server_signature'
p1970
asbag69
(g90
g71
NtRp1971
(dp1972
g74
(dp1973
g101
g102
ssg83
g1962
sg76
(lp1974
S':'
asbag69
(g90
g71
NtRp1975
(dp1976
g74
(dp1977
sg83
g1962
sg76
(lp1978
g69
(g70
g71
NtRp1979
(dp1980
g74
(dp1981
g82
I4
ssg83
g1975
sg76
(lp1982
S''
asbasbasbag69
(g85
g71
NtRp1983
(dp1984
g74
(dp1985
sg83
g1019
sg76
(lp1986
g69
(g90
g71
NtRp1987
(dp1988
g74
(dp1989
g94
g95
ssg83
g1983
sg76
(lp1990
S'server_software'
p1991
asbag69
(g90
g71
NtRp1992
(dp1993
g74
(dp1994
g101
g102
ssg83
g1983
sg76
(lp1995
S':'
asbag69
(g90
g71
NtRp1996
(dp1997
g74
(dp1998
sg83
g1983
sg76
(lp1999
g69
(g70
g71
NtRp2000
(dp2001
g74
(dp2002
g82
I4
ssg83
g1996
sg76
(lp2003
S'Apache/2.2.22 (Unix) DAV/2 mod_wsgi/3.3 Python/2.6.7 PHP/5.3.13 with Suhosin-Patch mod_ssl/2.2.22 OpenSSL/0.9.8r'
p2004
asbasbasbag69
(g85
g71
NtRp2005
(dp2006
g74
(dp2007
sg83
g1019
sg76
(lp2008
g69
(g90
g71
NtRp2009
(dp2010
g74
(dp2011
g94
g95
ssg83
g2005
sg76
(lp2012
S'web2py_path'
p2013
asbag69
(g90
g71
NtRp2014
(dp2015
g74
(dp2016
g101
g102
ssg83
g2005
sg76
(lp2017
S':'
asbag69
(g90
g71
NtRp2018
(dp2019
g74
(dp2020
sg83
g2005
sg76
(lp2021
g69
(g70
g71
NtRp2022
(dp2023
g74
(dp2024
g82
I4
ssg83
g2018
sg76
(lp2025
g1066
asbasbasbag69
(g85
g71
NtRp2026
(dp2027
g74
(dp2028
sg83
g1019
sg76
(lp2029
g69
(g90
g71
NtRp2030
(dp2031
g74
(dp2032
g94
g95
ssg83
g2026
sg76
(lp2033
S'web2py_version'
p2034
asbag69
(g90
g71
NtRp2035
(dp2036
g74
(dp2037
g101
g102
ssg83
g2026
sg76
(lp2038
S':'
asbag69
(g90
g71
NtRp2039
(dp2040
g74
(dp2041
sg83
g2026
sg76
(lp2042
g69
(g70
g71
NtRp2043
(dp2044
g74
(dp2045
g82
I4
ssg83
g2039
sg76
(lp2046
g69
(g78
g71
NtRp2047
(dp2048
g74
(dp2049
g82
I3
ssg83
Nsg76
(lp2050
g69
(g85
g71
NtRp2051
(dp2052
g74
(dp2053
sg83
g2047
sg76
(lp2054
g69
(g90
g71
NtRp2055
(dp2056
g74
(dp2057
sg83
g2051
sg76
(lp2058
g69
(g70
g71
NtRp2059
(dp2060
g74
(dp2061
g82
I3
ssg83
g2055
sg76
(lp2062
S'1'
asbasbasbag69
(g85
g71
NtRp2063
(dp2064
g74
(dp2065
sg83
g2047
sg76
(lp2066
g69
(g90
g71
NtRp2067
(dp2068
g74
(dp2069
sg83
g2063
sg76
(lp2070
g69
(g70
g71
NtRp2071
(dp2072
g74
(dp2073
g82
I3
ssg83
g2067
sg76
(lp2074
S'99'
p2075
asbasbasbag69
(g85
g71
NtRp2076
(dp2077
g74
(dp2078
sg83
g2047
sg76
(lp2079
g69
(g90
g71
NtRp2080
(dp2081
g74
(dp2082
sg83
g2076
sg76
(lp2083
g69
(g70
g71
NtRp2084
(dp2085
g74
(dp2086
g82
I3
ssg83
g2080
sg76
(lp2087
S'7'
asbasbasbag69
(g85
g71
NtRp2088
(dp2089
g74
(dp2090
sg83
g2047
sg76
(lp2091
g69
(g90
g71
NtRp2092
(dp2093
g74
(dp2094
sg83
g2088
sg76
(lp2095
g69
(g70
g71
NtRp2096
(dp2097
g74
(dp2098
g82
I3
ssg83
g2092
sg76
(lp2099
S'datetime.datetime(2012, 3, 4, 22, 12, 8)'
p2100
asbasbasbag69
(g85
g71
NtRp2101
(dp2102
g74
(dp2103
sg83
g2047
sg76
(lp2104
g69
(g90
g71
NtRp2105
(dp2106
g74
(dp2107
sg83
g2101
sg76
(lp2108
g69
(g70
g71
NtRp2109
(dp2110
g74
(dp2111
g82
I3
ssg83
g2105
sg76
(lp2112
S'stable'
p2113
asbasbasbasbasbasbasbag69
(g85
g71
NtRp2114
(dp2115
g74
(dp2116
sg83
g1019
sg76
(lp2117
g69
(g90
g71
NtRp2118
(dp2119
g74
(dp2120
g94
g95
ssg83
g2114
sg76
(lp2121
S'wsgi_errors'
p2122
asbag69
(g90
g71
NtRp2123
(dp2124
g74
(dp2125
g101
g102
ssg83
g2114
sg76
(lp2126
S':'
asbag69
(g90
g71
NtRp2127
(dp2128
g74
(dp2129
sg83
g2114
sg76
(lp2130
g69
(g70
g71
NtRp2131
(dp2132
g74
(dp2133
g82
I4
ssg83
g2127
sg76
(lp2134
S'<mod_wsgi.Log object at 0x110a2bf30>'
p2135
asbasbasbag69
(g85
g71
NtRp2136
(dp2137
g74
(dp2138
sg83
g1019
sg76
(lp2139
g69
(g90
g71
NtRp2140
(dp2141
g74
(dp2142
g94
g95
ssg83
g2136
sg76
(lp2143
S'wsgi_file_wrapper'
p2144
asbag69
(g90
g71
NtRp2145
(dp2146
g74
(dp2147
g101
g102
ssg83
g2136
sg76
(lp2148
S':'
asbag69
(g90
g71
NtRp2149
(dp2150
g74
(dp2151
sg83
g2136
sg76
(lp2152
g69
(g70
g71
NtRp2153
(dp2154
g74
(dp2155
g82
I4
ssg83
g2149
sg76
(lp2156
S'<built-in method file_wrapper of mod_wsgi.Adapter object at 0x110a7a210>'
p2157
asbasbasbag69
(g85
g71
NtRp2158
(dp2159
g74
(dp2160
sg83
g1019
sg76
(lp2161
g69
(g90
g71
NtRp2162
(dp2163
g74
(dp2164
g94
g95
ssg83
g2158
sg76
(lp2165
S'wsgi_input'
p2166
asbag69
(g90
g71
NtRp2167
(dp2168
g74
(dp2169
g101
g102
ssg83
g2158
sg76
(lp2170
S':'
asbag69
(g90
g71
NtRp2171
(dp2172
g74
(dp2173
sg83
g2158
sg76
(lp2174
g69
(g70
g71
NtRp2175
(dp2176
g74
(dp2177
g82
I4
ssg83
g2171
sg76
(lp2178
S'<mod_wsgi.Input object at 0x11060f770>'
p2179
asbasbasbag69
(g85
g71
NtRp2180
(dp2181
g74
(dp2182
sg83
g1019
sg76
(lp2183
g69
(g90
g71
NtRp2184
(dp2185
g74
(dp2186
g94
g95
ssg83
g2180
sg76
(lp2187
S'wsgi_multiprocess'
p2188
asbag69
(g90
g71
NtRp2189
(dp2190
g74
(dp2191
g101
g102
ssg83
g2180
sg76
(lp2192
S':'
asbag69
(g90
g71
NtRp2193
(dp2194
g74
(dp2195
sg83
g2180
sg76
(lp2196
g69
(g70
g71
NtRp2197
(dp2198
g74
(dp2199
g82
I4
ssg83
g2193
sg76
(lp2200
S'True'
p2201
asbasbasbag69
(g85
g71
NtRp2202
(dp2203
g74
(dp2204
sg83
g1019
sg76
(lp2205
g69
(g90
g71
NtRp2206
(dp2207
g74
(dp2208
g94
g95
ssg83
g2202
sg76
(lp2209
S'wsgi_multithread'
p2210
asbag69
(g90
g71
NtRp2211
(dp2212
g74
(dp2213
g101
g102
ssg83
g2202
sg76
(lp2214
S':'
asbag69
(g90
g71
NtRp2215
(dp2216
g74
(dp2217
sg83
g2202
sg76
(lp2218
g69
(g70
g71
NtRp2219
(dp2220
g74
(dp2221
g82
I4
ssg83
g2215
sg76
(lp2222
g112
asbasbasbag69
(g85
g71
NtRp2223
(dp2224
g74
(dp2225
sg83
g1019
sg76
(lp2226
g69
(g90
g71
NtRp2227
(dp2228
g74
(dp2229
g94
g95
ssg83
g2223
sg76
(lp2230
S'wsgi_run_once'
p2231
asbag69
(g90
g71
NtRp2232
(dp2233
g74
(dp2234
g101
g102
ssg83
g2223
sg76
(lp2235
S':'
asbag69
(g90
g71
NtRp2236
(dp2237
g74
(dp2238
sg83
g2223
sg76
(lp2239
g69
(g70
g71
NtRp2240
(dp2241
g74
(dp2242
g82
I4
ssg83
g2236
sg76
(lp2243
g112
asbasbasbag69
(g85
g71
NtRp2244
(dp2245
g74
(dp2246
sg83
g1019
sg76
(lp2247
g69
(g90
g71
NtRp2248
(dp2249
g74
(dp2250
g94
g95
ssg83
g2244
sg76
(lp2251
S'wsgi_url_scheme'
p2252
asbag69
(g90
g71
NtRp2253
(dp2254
g74
(dp2255
g101
g102
ssg83
g2244
sg76
(lp2256
S':'
asbag69
(g90
g71
NtRp2257
(dp2258
g74
(dp2259
sg83
g2244
sg76
(lp2260
g69
(g70
g71
NtRp2261
(dp2262
g74
(dp2263
g82
I4
ssg83
g2257
sg76
(lp2264
S'http'
p2265
asbasbasbag69
(g85
g71
NtRp2266
(dp2267
g74
(dp2268
sg83
g1019
sg76
(lp2269
g69
(g90
g71
NtRp2270
(dp2271
g74
(dp2272
g94
g95
ssg83
g2266
sg76
(lp2273
S'wsgi_version'
p2274
asbag69
(g90
g71
NtRp2275
(dp2276
g74
(dp2277
g101
g102
ssg83
g2266
sg76
(lp2278
S':'
asbag69
(g90
g71
NtRp2279
(dp2280
g74
(dp2281
sg83
g2266
sg76
(lp2282
g69
(g70
g71
NtRp2283
(dp2284
g74
(dp2285
g82
I4
ssg83
g2279
sg76
(lp2286
g69
(g78
g71
NtRp2287
(dp2288
g74
(dp2289
g82
I3
ssg83
Nsg76
(lp2290
g69
(g85
g71
NtRp2291
(dp2292
g74
(dp2293
sg83
g2287
sg76
(lp2294
g69
(g90
g71
NtRp2295
(dp2296
g74
(dp2297
sg83
g2291
sg76
(lp2298
g69
(g70
g71
NtRp2299
(dp2300
g74
(dp2301
g82
I3
ssg83
g2295
sg76
(lp2302
S'1'
asbasbasbag69
(g85
g71
NtRp2303
(dp2304
g74
(dp2305
sg83
g2287
sg76
(lp2306
g69
(g90
g71
NtRp2307
(dp2308
g74
(dp2309
sg83
g2303
sg76
(lp2310
g69
(g70
g71
NtRp2311
(dp2312
g74
(dp2313
g82
I3
ssg83
g2307
sg76
(lp2314
S'1'
asbasbasbasbasbasbasbasbasbasbasbag69
(g85
g71
NtRp2315
(dp2316
g74
(dp2317
sg83
g79
sg76
(lp2318
g69
(g90
g71
NtRp2319
(dp2320
g74
(dp2321
g94
g95
ssg83
g2315
sg76
(lp2322
S'extension'
p2323
asbag69
(g90
g71
NtRp2324
(dp2325
g74
(dp2326
g101
g102
ssg83
g2315
sg76
(lp2327
S':'
asbag69
(g90
g71
NtRp2328
(dp2329
g74
(dp2330
sg83
g2315
sg76
(lp2331
g69
(g70
g71
NtRp2332
(dp2333
g74
(dp2334
g82
I5
ssg83
g2328
sg76
(lp2335
S'html'
p2336
asbasbasbag69
(g85
g71
NtRp2337
(dp2338
g74
(dp2339
sg83
g79
sg76
(lp2340
g69
(g90
g71
NtRp2341
(dp2342
g74
(dp2343
g94
g95
ssg83
g2337
sg76
(lp2344
S'folder'
p2345
asbag69
(g90
g71
NtRp2346
(dp2347
g74
(dp2348
g101
g102
ssg83
g2337
sg76
(lp2349
S':'
asbag69
(g90
g71
NtRp2350
(dp2351
g74
(dp2352
sg83
g2337
sg76
(lp2353
g69
(g70
g71
NtRp2354
(dp2355
g74
(dp2356
g82
I5
ssg83
g2350
sg76
(lp2357
S'/Users/emir/Documents/beardcode/web2py/applications/contador/'
p2358
asbasbasbag69
(g85
g71
NtRp2359
(dp2360
g74
(dp2361
sg83
g79
sg76
(lp2362
g69
(g90
g71
NtRp2363
(dp2364
g74
(dp2365
g94
g95
ssg83
g2359
sg76
(lp2366
S'function'
p2367
asbag69
(g90
g71
NtRp2368
(dp2369
g74
(dp2370
g101
g102
ssg83
g2359
sg76
(lp2371
S':'
asbag69
(g90
g71
NtRp2372
(dp2373
g74
(dp2374
sg83
g2359
sg76
(lp2375
g69
(g70
g71
NtRp2376
(dp2377
g74
(dp2378
g82
I5
ssg83
g2372
sg76
(lp2379
S'index'
p2380
asbasbasbag69
(g85
g71
NtRp2381
(dp2382
g74
(dp2383
sg83
g79
sg76
(lp2384
g69
(g90
g71
NtRp2385
(dp2386
g74
(dp2387
g94
g95
ssg83
g2381
sg76
(lp2388
S'get_vars'
p2389
asbag69
(g90
g71
NtRp2390
(dp2391
g74
(dp2392
g101
g102
ssg83
g2381
sg76
(lp2393
S':'
asbag69
(g90
g71
NtRp2394
(dp2395
g74
(dp2396
sg83
g2381
sg76
(lp2397
g69
(g70
g71
NtRp2398
(dp2399
g74
(dp2400
g82
I5
ssg83
g2394
sg76
(lp2401
g69
(g78
g71
NtRp2402
(dp2403
g74
(dp2404
g82
I4
ssg83
Nsg76
(lp2405
sbasbasbasbag69
(g85
g71
NtRp2406
(dp2407
g74
(dp2408
sg83
g79
sg76
(lp2409
g69
(g90
g71
NtRp2410
(dp2411
g74
(dp2412
g94
g95
ssg83
g2406
sg76
(lp2413
S'global_settings'
p2414
asbag69
(g90
g71
NtRp2415
(dp2416
g74
(dp2417
g101
g102
ssg83
g2406
sg76
(lp2418
S':'
asbag69
(g90
g71
NtRp2419
(dp2420
g74
(dp2421
sg83
g2406
sg76
(lp2422
g69
(g70
g71
NtRp2423
(dp2424
g74
(dp2425
g82
I5
ssg83
g2419
sg76
(lp2426
g69
(g78
g71
NtRp2427
(dp2428
g74
(dp2429
g82
I4
ssg83
Nsg76
(lp2430
g69
(g85
g71
NtRp2431
(dp2432
g74
(dp2433
sg83
g2427
sg76
(lp2434
g69
(g90
g71
NtRp2435
(dp2436
g74
(dp2437
g94
g95
ssg83
g2431
sg76
(lp2438
g1031
asbag69
(g90
g71
NtRp2439
(dp2440
g74
(dp2441
g101
g102
ssg83
g2431
sg76
(lp2442
S':'
asbag69
(g90
g71
NtRp2443
(dp2444
g74
(dp2445
sg83
g2431
sg76
(lp2446
g69
(g70
g71
NtRp2447
(dp2448
g74
(dp2449
g82
I4
ssg83
g2443
sg76
(lp2450
S"set(['/Users/emir/Documents/beardcode/web2py/applications/welcome/', '/Users/emir/Documents/beardcode/web2py/applications/admin/', '/Users/emir/Documents/beardcode/web2py/applications/contador/'])"
p2451
asbasbasbag69
(g85
g71
NtRp2452
(dp2453
g74
(dp2454
sg83
g2427
sg76
(lp2455
g69
(g90
g71
NtRp2456
(dp2457
g74
(dp2458
g94
g95
ssg83
g2452
sg76
(lp2459
g1053
asbag69
(g90
g71
NtRp2460
(dp2461
g74
(dp2462
g101
g102
ssg83
g2452
sg76
(lp2463
S':'
asbag69
(g90
g71
NtRp2464
(dp2465
g74
(dp2466
sg83
g2452
sg76
(lp2467
g69
(g70
g71
NtRp2468
(dp2469
g74
(dp2470
g82
I4
ssg83
g2464
sg76
(lp2471
g1066
asbasbasbag69
(g85
g71
NtRp2472
(dp2473
g74
(dp2474
sg83
g2427
sg76
(lp2475
g69
(g90
g71
NtRp2476
(dp2477
g74
(dp2478
g94
g95
ssg83
g2472
sg76
(lp2479
g1075
asbag69
(g90
g71
NtRp2480
(dp2481
g74
(dp2482
g101
g102
ssg83
g2472
sg76
(lp2483
S':'
asbag69
(g90
g71
NtRp2484
(dp2485
g74
(dp2486
sg83
g2472
sg76
(lp2487
g69
(g70
g71
NtRp2488
(dp2489
g74
(dp2490
g82
I4
ssg83
g2484
sg76
(lp2491
S'set([])'
p2492
asbasbasbag69
(g85
g71
NtRp2493
(dp2494
g74
(dp2495
sg83
g2427
sg76
(lp2496
g69
(g90
g71
NtRp2497
(dp2498
g74
(dp2499
g94
g95
ssg83
g2493
sg76
(lp2500
g1097
asbag69
(g90
g71
NtRp2501
(dp2502
g74
(dp2503
g101
g102
ssg83
g2493
sg76
(lp2504
S':'
asbag69
(g90
g71
NtRp2505
(dp2506
g74
(dp2507
sg83
g2493
sg76
(lp2508
g69
(g70
g71
NtRp2509
(dp2510
g74
(dp2511
g82
I4
ssg83
g2505
sg76
(lp2512
g112
asbasbasbag69
(g85
g71
NtRp2513
(dp2514
g74
(dp2515
sg83
g2427
sg76
(lp2516
g69
(g90
g71
NtRp2517
(dp2518
g74
(dp2519
g94
g95
ssg83
g2513
sg76
(lp2520
g1162
asbag69
(g90
g71
NtRp2521
(dp2522
g74
(dp2523
g101
g102
ssg83
g2513
sg76
(lp2524
S':'
asbag69
(g90
g71
NtRp2525
(dp2526
g74
(dp2527
sg83
g2513
sg76
(lp2528
g69
(g70
g71
NtRp2529
(dp2530
g74
(dp2531
g82
I4
ssg83
g2525
sg76
(lp2532
g1066
asbasbasbag69
(g85
g71
NtRp2533
(dp2534
g74
(dp2535
sg83
g2427
sg76
(lp2536
g69
(g90
g71
NtRp2537
(dp2538
g74
(dp2539
g94
g95
ssg83
g2533
sg76
(lp2540
g1381
asbag69
(g90
g71
NtRp2541
(dp2542
g74
(dp2543
g101
g102
ssg83
g2533
sg76
(lp2544
S':'
asbag69
(g90
g71
NtRp2545
(dp2546
g74
(dp2547
sg83
g2533
sg76
(lp2548
g69
(g70
g71
NtRp2549
(dp2550
g74
(dp2551
g82
I4
ssg83
g2545
sg76
(lp2552
g112
asbasbasbag69
(g85
g71
NtRp2553
(dp2554
g74
(dp2555
sg83
g2427
sg76
(lp2556
g69
(g90
g71
NtRp2557
(dp2558
g74
(dp2559
g94
g95
ssg83
g2553
sg76
(lp2560
g1402
asbag69
(g90
g71
NtRp2561
(dp2562
g74
(dp2563
g101
g102
ssg83
g2553
sg76
(lp2564
S':'
asbag69
(g90
g71
NtRp2565
(dp2566
g74
(dp2567
sg83
g2553
sg76
(lp2568
g69
(g70
g71
NtRp2569
(dp2570
g74
(dp2571
g82
I4
ssg83
g2565
sg76
(lp2572
g112
asbasbasbag69
(g85
g71
NtRp2573
(dp2574
g74
(dp2575
sg83
g2427
sg76
(lp2576
g69
(g90
g71
NtRp2577
(dp2578
g74
(dp2579
g94
g95
ssg83
g2573
sg76
(lp2580
g2034
asbag69
(g90
g71
NtRp2581
(dp2582
g74
(dp2583
g101
g102
ssg83
g2573
sg76
(lp2584
S':'
asbag69
(g90
g71
NtRp2585
(dp2586
g74
(dp2587
sg83
g2573
sg76
(lp2588
g69
(g70
g71
NtRp2589
(dp2590
g74
(dp2591
g82
I4
ssg83
g2585
sg76
(lp2592
g69
(g78
g71
NtRp2593
(dp2594
g74
(dp2595
g82
I3
ssg83
Nsg76
(lp2596
g69
(g85
g71
NtRp2597
(dp2598
g74
(dp2599
sg83
g2593
sg76
(lp2600
g69
(g90
g71
NtRp2601
(dp2602
g74
(dp2603
sg83
g2597
sg76
(lp2604
g69
(g70
g71
NtRp2605
(dp2606
g74
(dp2607
g82
I3
ssg83
g2601
sg76
(lp2608
S'1'
asbasbasbag69
(g85
g71
NtRp2609
(dp2610
g74
(dp2611
sg83
g2593
sg76
(lp2612
g69
(g90
g71
NtRp2613
(dp2614
g74
(dp2615
sg83
g2609
sg76
(lp2616
g69
(g70
g71
NtRp2617
(dp2618
g74
(dp2619
g82
I3
ssg83
g2613
sg76
(lp2620
S'99'
p2621
asbasbasbag69
(g85
g71
NtRp2622
(dp2623
g74
(dp2624
sg83
g2593
sg76
(lp2625
g69
(g90
g71
NtRp2626
(dp2627
g74
(dp2628
sg83
g2622
sg76
(lp2629
g69
(g70
g71
NtRp2630
(dp2631
g74
(dp2632
g82
I3
ssg83
g2626
sg76
(lp2633
S'7'
asbasbasbag69
(g85
g71
NtRp2634
(dp2635
g74
(dp2636
sg83
g2593
sg76
(lp2637
g69
(g90
g71
NtRp2638
(dp2639
g74
(dp2640
sg83
g2634
sg76
(lp2641
g69
(g70
g71
NtRp2642
(dp2643
g74
(dp2644
g82
I3
ssg83
g2638
sg76
(lp2645
S'datetime.datetime(2012, 3, 4, 22, 12, 8)'
p2646
asbasbasbag69
(g85
g71
NtRp2647
(dp2648
g74
(dp2649
sg83
g2593
sg76
(lp2650
g69
(g90
g71
NtRp2651
(dp2652
g74
(dp2653
sg83
g2647
sg76
(lp2654
g69
(g70
g71
NtRp2655
(dp2656
g74
(dp2657
g82
I3
ssg83
g2651
sg76
(lp2658
g2113
asbasbasbasbasbasbasbasbasbasbasbag69
(g85
g71
NtRp2659
(dp2660
g74
(dp2661
sg83
g79
sg76
(lp2662
g69
(g90
g71
NtRp2663
(dp2664
g74
(dp2665
g94
g95
ssg83
g2659
sg76
(lp2666
S'is_https'
p2667
asbag69
(g90
g71
NtRp2668
(dp2669
g74
(dp2670
g101
g102
ssg83
g2659
sg76
(lp2671
S':'
asbag69
(g90
g71
NtRp2672
(dp2673
g74
(dp2674
sg83
g2659
sg76
(lp2675
g69
(g70
g71
NtRp2676
(dp2677
g74
(dp2678
g82
I5
ssg83
g2672
sg76
(lp2679
g112
asbasbasbag69
(g85
g71
NtRp2680
(dp2681
g74
(dp2682
sg83
g79
sg76
(lp2683
g69
(g90
g71
NtRp2684
(dp2685
g74
(dp2686
g94
g95
ssg83
g2680
sg76
(lp2687
S'is_local'
p2688
asbag69
(g90
g71
NtRp2689
(dp2690
g74
(dp2691
g101
g102
ssg83
g2680
sg76
(lp2692
S':'
asbag69
(g90
g71
NtRp2693
(dp2694
g74
(dp2695
sg83
g2680
sg76
(lp2696
g69
(g70
g71
NtRp2697
(dp2698
g74
(dp2699
g82
I5
ssg83
g2693
sg76
(lp2700
g2201
asbasbasbag69
(g85
g71
NtRp2701
(dp2702
g74
(dp2703
sg83
g79
sg76
(lp2704
g69
(g90
g71
NtRp2705
(dp2706
g74
(dp2707
g94
g95
ssg83
g2701
sg76
(lp2708
S'is_restful'
p2709
asbag69
(g90
g71
NtRp2710
(dp2711
g74
(dp2712
g101
g102
ssg83
g2701
sg76
(lp2713
S':'
asbag69
(g90
g71
NtRp2714
(dp2715
g74
(dp2716
sg83
g2701
sg76
(lp2717
g69
(g70
g71
NtRp2718
(dp2719
g74
(dp2720
g82
I5
ssg83
g2714
sg76
(lp2721
g112
asbasbasbag69
(g85
g71
NtRp2722
(dp2723
g74
(dp2724
sg83
g79
sg76
(lp2725
g69
(g90
g71
NtRp2726
(dp2727
g74
(dp2728
g94
g95
ssg83
g2722
sg76
(lp2729
S'now'
p2730
asbag69
(g90
g71
NtRp2731
(dp2732
g74
(dp2733
g101
g102
ssg83
g2722
sg76
(lp2734
S':'
asbag69
(g90
g71
NtRp2735
(dp2736
g74
(dp2737
sg83
g2722
sg76
(lp2738
g69
(g70
g71
NtRp2739
(dp2740
g74
(dp2741
g82
I5
ssg83
g2735
sg76
(lp2742
S'datetime.datetime(2012, 8, 3, 10, 51, 29, 800650)'
p2743
asbasbasbag69
(g85
g71
NtRp2744
(dp2745
g74
(dp2746
sg83
g79
sg76
(lp2747
g69
(g90
g71
NtRp2748
(dp2749
g74
(dp2750
g94
g95
ssg83
g2744
sg76
(lp2751
S'post_vars'
p2752
asbag69
(g90
g71
NtRp2753
(dp2754
g74
(dp2755
g101
g102
ssg83
g2744
sg76
(lp2756
S':'
asbag69
(g90
g71
NtRp2757
(dp2758
g74
(dp2759
sg83
g2744
sg76
(lp2760
g69
(g70
g71
NtRp2761
(dp2762
g74
(dp2763
g82
I5
ssg83
g2757
sg76
(lp2764
g69
(g78
g71
NtRp2765
(dp2766
g74
(dp2767
g82
I4
ssg83
Nsg76
(lp2768
sbasbasbasbag69
(g85
g71
NtRp2769
(dp2770
g74
(dp2771
sg83
g79
sg76
(lp2772
g69
(g90
g71
NtRp2773
(dp2774
g74
(dp2775
g94
g95
ssg83
g2769
sg76
(lp2776
S'url'
p2777
asbag69
(g90
g71
NtRp2778
(dp2779
g74
(dp2780
g101
g102
ssg83
g2769
sg76
(lp2781
S':'
asbag69
(g90
g71
NtRp2782
(dp2783
g74
(dp2784
sg83
g2769
sg76
(lp2785
g69
(g70
g71
NtRp2786
(dp2787
g74
(dp2788
g82
I5
ssg83
g2782
sg76
(lp2789
S'/contador/default/index'
p2790
asbasbasbag69
(g85
g71
NtRp2791
(dp2792
g74
(dp2793
sg83
g79
sg76
(lp2794
g69
(g90
g71
NtRp2795
(dp2796
g74
(dp2797
g94
g95
ssg83
g2791
sg76
(lp2798
S'utcnow'
p2799
asbag69
(g90
g71
NtRp2800
(dp2801
g74
(dp2802
g101
g102
ssg83
g2791
sg76
(lp2803
S':'
asbag69
(g90
g71
NtRp2804
(dp2805
g74
(dp2806
sg83
g2791
sg76
(lp2807
g69
(g70
g71
NtRp2808
(dp2809
g74
(dp2810
g82
I5
ssg83
g2804
sg76
(lp2811
S'datetime.datetime(2012, 8, 3, 15, 51, 29, 800757)'
p2812
asbasbasbag69
(g85
g71
NtRp2813
(dp2814
g74
(dp2815
sg83
g79
sg76
(lp2816
g69
(g90
g71
NtRp2817
(dp2818
g74
(dp2819
g94
g95
ssg83
g2813
sg76
(lp2820
S'uuid'
p2821
asbag69
(g90
g71
NtRp2822
(dp2823
g74
(dp2824
g101
g102
ssg83
g2813
sg76
(lp2825
S':'
asbag69
(g90
g71
NtRp2826
(dp2827
g74
(dp2828
sg83
g2813
sg76
(lp2829
g69
(g70
g71
NtRp2830
(dp2831
g74
(dp2832
g82
I5
ssg83
g2826
sg76
(lp2833
S'contador/127.0.0.1.2012-08-03.10-51-29.156aac15-d6f9-4f8b-bfb7-56726844d508'
p2834
asbasbasbag69
(g85
g71
NtRp2835
(dp2836
g74
(dp2837
sg83
g79
sg76
(lp2838
g69
(g90
g71
NtRp2839
(dp2840
g74
(dp2841
g94
g95
ssg83
g2835
sg76
(lp2842
S'vars'
p2843
asbag69
(g90
g71
NtRp2844
(dp2845
g74
(dp2846
g101
g102
ssg83
g2835
sg76
(lp2847
S':'
asbag69
(g90
g71
NtRp2848
(dp2849
g74
(dp2850
sg83
g2835
sg76
(lp2851
g69
(g70
g71
NtRp2852
(dp2853
g74
(dp2854
g82
I5
ssg83
g2848
sg76
(lp2855
g69
(g78
g71
NtRp2856
(dp2857
g74
(dp2858
g82
I4
ssg83
Nsg76
(lp2859
sbasbasbasbag69
(g85
g71
NtRp2860
(dp2861
g74
(dp2862
sg83
g79
sg76
(lp2863
g69
(g90
g71
NtRp2864
(dp2865
g74
(dp2866
g94
g95
ssg83
g2860
sg76
(lp2867
S'wsgi'
p2868
asbag69
(g90
g71
NtRp2869
(dp2870
g74
(dp2871
g101
g102
ssg83
g2860
sg76
(lp2872
S':'
asbag69
(g90
g71
NtRp2873
(dp2874
g74
(dp2875
sg83
g2860
sg76
(lp2876
g69
(g70
g71
NtRp2877
(dp2878
g74
(dp2879
g82
I5
ssg83
g2873
sg76
(lp2880
g69
(g78
g71
NtRp2881
(dp2882
g74
(dp2883
g82
I4
ssg83
Nsg76
(lp2884
g69
(g85
g71
NtRp2885
(dp2886
g74
(dp2887
sg83
g2881
sg76
(lp2888
g69
(g90
g71
NtRp2889
(dp2890
g74
(dp2891
g94
g95
ssg83
g2885
sg76
(lp2892
S'environ'
p2893
asbag69
(g90
g71
NtRp2894
(dp2895
g74
(dp2896
g101
g102
ssg83
g2885
sg76
(lp2897
S':'
asbag69
(g90
g71
NtRp2898
(dp2899
g74
(dp2900
sg83
g2885
sg76
(lp2901
g69
(g70
g71
NtRp2902
(dp2903
g74
(dp2904
g82
I4
ssg83
g2898
sg76
(lp2905
g69
(g78
g71
NtRp2906
(dp2907
g74
(dp2908
g82
I3
ssg83
Nsg76
(lp2909
g69
(g85
g71
NtRp2910
(dp2911
g74
(dp2912
sg83
g2906
sg76
(lp2913
g69
(g90
g71
NtRp2914
(dp2915
g74
(dp2916
g94
g95
ssg83
g2910
sg76
(lp2917
S'DOCUMENT_ROOT'
p2918
asbag69
(g90
g71
NtRp2919
(dp2920
g74
(dp2921
g101
g102
ssg83
g2910
sg76
(lp2922
S':'
asbag69
(g90
g71
NtRp2923
(dp2924
g74
(dp2925
sg83
g2910
sg76
(lp2926
g69
(g70
g71
NtRp2927
(dp2928
g74
(dp2929
g82
I3
ssg83
g2923
sg76
(lp2930
g1131
asbasbasbag69
(g85
g71
NtRp2931
(dp2932
g74
(dp2933
sg83
g2906
sg76
(lp2934
g69
(g90
g71
NtRp2935
(dp2936
g74
(dp2937
g94
g95
ssg83
g2931
sg76
(lp2938
S'GATEWAY_INTERFACE'
p2939
asbag69
(g90
g71
NtRp2940
(dp2941
g74
(dp2942
g101
g102
ssg83
g2931
sg76
(lp2943
S':'
asbag69
(g90
g71
NtRp2944
(dp2945
g74
(dp2946
sg83
g2931
sg76
(lp2947
g69
(g70
g71
NtRp2948
(dp2949
g74
(dp2950
g82
I3
ssg83
g2944
sg76
(lp2951
g1153
asbasbasbag69
(g85
g71
NtRp2952
(dp2953
g74
(dp2954
sg83
g2906
sg76
(lp2955
g69
(g90
g71
NtRp2956
(dp2957
g74
(dp2958
g94
g95
ssg83
g2952
sg76
(lp2959
S'HTTP_ACCEPT'
p2960
asbag69
(g90
g71
NtRp2961
(dp2962
g74
(dp2963
g101
g102
ssg83
g2952
sg76
(lp2964
S':'
asbag69
(g90
g71
NtRp2965
(dp2966
g74
(dp2967
sg83
g2952
sg76
(lp2968
g69
(g70
g71
NtRp2969
(dp2970
g74
(dp2971
g82
I3
ssg83
g2965
sg76
(lp2972
g1196
asbasbasbag69
(g85
g71
NtRp2973
(dp2974
g74
(dp2975
sg83
g2906
sg76
(lp2976
g69
(g90
g71
NtRp2977
(dp2978
g74
(dp2979
g94
g95
ssg83
g2973
sg76
(lp2980
S'HTTP_ACCEPT_CHARSET'
p2981
asbag69
(g90
g71
NtRp2982
(dp2983
g74
(dp2984
g101
g102
ssg83
g2973
sg76
(lp2985
S':'
asbag69
(g90
g71
NtRp2986
(dp2987
g74
(dp2988
sg83
g2973
sg76
(lp2989
g69
(g70
g71
NtRp2990
(dp2991
g74
(dp2992
g82
I3
ssg83
g2986
sg76
(lp2993
g1218
asbasbasbag69
(g85
g71
NtRp2994
(dp2995
g74
(dp2996
sg83
g2906
sg76
(lp2997
g69
(g90
g71
NtRp2998
(dp2999
g74
(dp3000
g94
g95
ssg83
g2994
sg76
(lp3001
S'HTTP_ACCEPT_ENCODING'
p3002
asbag69
(g90
g71
NtRp3003
(dp3004
g74
(dp3005
g101
g102
ssg83
g2994
sg76
(lp3006
S':'
asbag69
(g90
g71
NtRp3007
(dp3008
g74
(dp3009
sg83
g2994
sg76
(lp3010
g69
(g70
g71
NtRp3011
(dp3012
g74
(dp3013
g82
I3
ssg83
g3007
sg76
(lp3014
g1240
asbasbasbag69
(g85
g71
NtRp3015
(dp3016
g74
(dp3017
sg83
g2906
sg76
(lp3018
g69
(g90
g71
NtRp3019
(dp3020
g74
(dp3021
g94
g95
ssg83
g3015
sg76
(lp3022
S'HTTP_ACCEPT_LANGUAGE'
p3023
asbag69
(g90
g71
NtRp3024
(dp3025
g74
(dp3026
g101
g102
ssg83
g3015
sg76
(lp3027
S':'
asbag69
(g90
g71
NtRp3028
(dp3029
g74
(dp3030
sg83
g3015
sg76
(lp3031
g69
(g70
g71
NtRp3032
(dp3033
g74
(dp3034
g82
I3
ssg83
g3028
sg76
(lp3035
g1262
asbasbasbag69
(g85
g71
NtRp3036
(dp3037
g74
(dp3038
sg83
g2906
sg76
(lp3039
g69
(g90
g71
NtRp3040
(dp3041
g74
(dp3042
g94
g95
ssg83
g3036
sg76
(lp3043
S'HTTP_CACHE_CONTROL'
p3044
asbag69
(g90
g71
NtRp3045
(dp3046
g74
(dp3047
g101
g102
ssg83
g3036
sg76
(lp3048
S':'
asbag69
(g90
g71
NtRp3049
(dp3050
g74
(dp3051
sg83
g3036
sg76
(lp3052
g69
(g70
g71
NtRp3053
(dp3054
g74
(dp3055
g82
I3
ssg83
g3049
sg76
(lp3056
g1284
asbasbasbag69
(g85
g71
NtRp3057
(dp3058
g74
(dp3059
sg83
g2906
sg76
(lp3060
g69
(g90
g71
NtRp3061
(dp3062
g74
(dp3063
g94
g95
ssg83
g3057
sg76
(lp3064
S'HTTP_CONNECTION'
p3065
asbag69
(g90
g71
NtRp3066
(dp3067
g74
(dp3068
g101
g102
ssg83
g3057
sg76
(lp3069
S':'
asbag69
(g90
g71
NtRp3070
(dp3071
g74
(dp3072
sg83
g3057
sg76
(lp3073
g69
(g70
g71
NtRp3074
(dp3075
g74
(dp3076
g82
I3
ssg83
g3070
sg76
(lp3077
g1306
asbasbasbag69
(g85
g71
NtRp3078
(dp3079
g74
(dp3080
sg83
g2906
sg76
(lp3081
g69
(g90
g71
NtRp3082
(dp3083
g74
(dp3084
g94
g95
ssg83
g3078
sg76
(lp3085
S'HTTP_COOKIE'
p3086
asbag69
(g90
g71
NtRp3087
(dp3088
g74
(dp3089
g101
g102
ssg83
g3078
sg76
(lp3090
S':'
asbag69
(g90
g71
NtRp3091
(dp3092
g74
(dp3093
sg83
g3078
sg76
(lp3094
g69
(g70
g71
NtRp3095
(dp3096
g74
(dp3097
g82
I3
ssg83
g3091
sg76
(lp3098
g1328
asbasbasbag69
(g85
g71
NtRp3099
(dp3100
g74
(dp3101
sg83
g2906
sg76
(lp3102
g69
(g90
g71
NtRp3103
(dp3104
g74
(dp3105
g94
g95
ssg83
g3099
sg76
(lp3106
S'HTTP_HOST'
p3107
asbag69
(g90
g71
NtRp3108
(dp3109
g74
(dp3110
g101
g102
ssg83
g3099
sg76
(lp3111
S':'
asbag69
(g90
g71
NtRp3112
(dp3113
g74
(dp3114
sg83
g3099
sg76
(lp3115
g69
(g70
g71
NtRp3116
(dp3117
g74
(dp3118
g82
I3
ssg83
g3112
sg76
(lp3119
g1350
asbasbasbag69
(g85
g71
NtRp3120
(dp3121
g74
(dp3122
sg83
g2906
sg76
(lp3123
g69
(g90
g71
NtRp3124
(dp3125
g74
(dp3126
g94
g95
ssg83
g3120
sg76
(lp3127
S'HTTP_USER_AGENT'
p3128
asbag69
(g90
g71
NtRp3129
(dp3130
g74
(dp3131
g101
g102
ssg83
g3120
sg76
(lp3132
S':'
asbag69
(g90
g71
NtRp3133
(dp3134
g74
(dp3135
sg83
g3120
sg76
(lp3136
g69
(g70
g71
NtRp3137
(dp3138
g74
(dp3139
g82
I3
ssg83
g3133
sg76
(lp3140
g1372
asbasbasbag69
(g85
g71
NtRp3141
(dp3142
g74
(dp3143
sg83
g2906
sg76
(lp3144
g69
(g90
g71
NtRp3145
(dp3146
g74
(dp3147
g94
g95
ssg83
g3141
sg76
(lp3148
S'PATH_INFO'
p3149
asbag69
(g90
g71
NtRp3150
(dp3151
g74
(dp3152
g101
g102
ssg83
g3141
sg76
(lp3153
S':'
asbag69
(g90
g71
NtRp3154
(dp3155
g74
(dp3156
sg83
g3141
sg76
(lp3157
g69
(g70
g71
NtRp3158
(dp3159
g74
(dp3160
g82
I3
ssg83
g3154
sg76
(lp3161
g1678
asbasbasbag69
(g85
g71
NtRp3162
(dp3163
g74
(dp3164
sg83
g2906
sg76
(lp3165
g69
(g90
g71
NtRp3166
(dp3167
g74
(dp3168
g94
g95
ssg83
g3162
sg76
(lp3169
S'PATH_TRANSLATED'
p3170
asbag69
(g90
g71
NtRp3171
(dp3172
g74
(dp3173
g101
g102
ssg83
g3162
sg76
(lp3174
S':'
asbag69
(g90
g71
NtRp3175
(dp3176
g74
(dp3177
sg83
g3162
sg76
(lp3178
g69
(g70
g71
NtRp3179
(dp3180
g74
(dp3181
g82
I3
ssg83
g3175
sg76
(lp3182
g1700
asbasbasbag69
(g85
g71
NtRp3183
(dp3184
g74
(dp3185
sg83
g2906
sg76
(lp3186
g69
(g90
g71
NtRp3187
(dp3188
g74
(dp3189
g94
g95
ssg83
g3183
sg76
(lp3190
S'QUERY_STRING'
p3191
asbag69
(g90
g71
NtRp3192
(dp3193
g74
(dp3194
g101
g102
ssg83
g3183
sg76
(lp3195
S':'
asbag69
(g90
g71
NtRp3196
(dp3197
g74
(dp3198
sg83
g3183
sg76
(lp3199
g69
(g70
g71
NtRp3200
(dp3201
g74
(dp3202
g82
I3
ssg83
g3196
sg76
(lp3203
S''
asbasbasbag69
(g85
g71
NtRp3204
(dp3205
g74
(dp3206
sg83
g2906
sg76
(lp3207
g69
(g90
g71
NtRp3208
(dp3209
g74
(dp3210
g94
g95
ssg83
g3204
sg76
(lp3211
S'REMOTE_ADDR'
p3212
asbag69
(g90
g71
NtRp3213
(dp3214
g74
(dp3215
g101
g102
ssg83
g3204
sg76
(lp3216
S':'
asbag69
(g90
g71
NtRp3217
(dp3218
g74
(dp3219
sg83
g3204
sg76
(lp3220
g69
(g70
g71
NtRp3221
(dp3222
g74
(dp3223
g82
I3
ssg83
g3217
sg76
(lp3224
g202
asbasbasbag69
(g85
g71
NtRp3225
(dp3226
g74
(dp3227
sg83
g2906
sg76
(lp3228
g69
(g90
g71
NtRp3229
(dp3230
g74
(dp3231
g94
g95
ssg83
g3225
sg76
(lp3232
S'REMOTE_PORT'
p3233
asbag69
(g90
g71
NtRp3234
(dp3235
g74
(dp3236
g101
g102
ssg83
g3225
sg76
(lp3237
S':'
asbag69
(g90
g71
NtRp3238
(dp3239
g74
(dp3240
sg83
g3225
sg76
(lp3241
g69
(g70
g71
NtRp3242
(dp3243
g74
(dp3244
g82
I3
ssg83
g3238
sg76
(lp3245
g1764
asbasbasbag69
(g85
g71
NtRp3246
(dp3247
g74
(dp3248
sg83
g2906
sg76
(lp3249
g69
(g90
g71
NtRp3250
(dp3251
g74
(dp3252
g94
g95
ssg83
g3246
sg76
(lp3253
S'REQUEST_METHOD'
p3254
asbag69
(g90
g71
NtRp3255
(dp3256
g74
(dp3257
g101
g102
ssg83
g3246
sg76
(lp3258
S':'
asbag69
(g90
g71
NtRp3259
(dp3260
g74
(dp3261
sg83
g3246
sg76
(lp3262
g69
(g70
g71
NtRp3263
(dp3264
g74
(dp3265
g82
I3
ssg83
g3259
sg76
(lp3266
g1786
asbasbasbag69
(g85
g71
NtRp3267
(dp3268
g74
(dp3269
sg83
g2906
sg76
(lp3270
g69
(g90
g71
NtRp3271
(dp3272
g74
(dp3273
g94
g95
ssg83
g3267
sg76
(lp3274
S'REQUEST_URI'
p3275
asbag69
(g90
g71
NtRp3276
(dp3277
g74
(dp3278
g101
g102
ssg83
g3267
sg76
(lp3279
S':'
asbag69
(g90
g71
NtRp3280
(dp3281
g74
(dp3282
sg83
g3267
sg76
(lp3283
g69
(g70
g71
NtRp3284
(dp3285
g74
(dp3286
g82
I3
ssg83
g3280
sg76
(lp3287
g1808
asbasbasbag69
(g85
g71
NtRp3288
(dp3289
g74
(dp3290
sg83
g2906
sg76
(lp3291
g69
(g90
g71
NtRp3292
(dp3293
g74
(dp3294
g94
g95
ssg83
g3288
sg76
(lp3295
S'SCRIPT_FILENAME'
p3296
asbag69
(g90
g71
NtRp3297
(dp3298
g74
(dp3299
g101
g102
ssg83
g3288
sg76
(lp3300
S':'
asbag69
(g90
g71
NtRp3301
(dp3302
g74
(dp3303
sg83
g3288
sg76
(lp3304
g69
(g70
g71
NtRp3305
(dp3306
g74
(dp3307
g82
I3
ssg83
g3301
sg76
(lp3308
g1830
asbasbasbag69
(g85
g71
NtRp3309
(dp3310
g74
(dp3311
sg83
g2906
sg76
(lp3312
g69
(g90
g71
NtRp3313
(dp3314
g74
(dp3315
g94
g95
ssg83
g3309
sg76
(lp3316
S'SCRIPT_NAME'
p3317
asbag69
(g90
g71
NtRp3318
(dp3319
g74
(dp3320
g101
g102
ssg83
g3309
sg76
(lp3321
S':'
asbag69
(g90
g71
NtRp3322
(dp3323
g74
(dp3324
sg83
g3309
sg76
(lp3325
g69
(g70
g71
NtRp3326
(dp3327
g74
(dp3328
g82
I3
ssg83
g3322
sg76
(lp3329
S''
asbasbasbag69
(g85
g71
NtRp3330
(dp3331
g74
(dp3332
sg83
g2906
sg76
(lp3333
g69
(g90
g71
NtRp3334
(dp3335
g74
(dp3336
g94
g95
ssg83
g3330
sg76
(lp3337
S'SERVER_ADDR'
p3338
asbag69
(g90
g71
NtRp3339
(dp3340
g74
(dp3341
g101
g102
ssg83
g3330
sg76
(lp3342
S':'
asbag69
(g90
g71
NtRp3343
(dp3344
g74
(dp3345
sg83
g3330
sg76
(lp3346
g69
(g70
g71
NtRp3347
(dp3348
g74
(dp3349
g82
I3
ssg83
g3343
sg76
(lp3350
g1873
asbasbasbag69
(g85
g71
NtRp3351
(dp3352
g74
(dp3353
sg83
g2906
sg76
(lp3354
g69
(g90
g71
NtRp3355
(dp3356
g74
(dp3357
g94
g95
ssg83
g3351
sg76
(lp3358
S'SERVER_ADMIN'
p3359
asbag69
(g90
g71
NtRp3360
(dp3361
g74
(dp3362
g101
g102
ssg83
g3351
sg76
(lp3363
S':'
asbag69
(g90
g71
NtRp3364
(dp3365
g74
(dp3366
sg83
g3351
sg76
(lp3367
g69
(g70
g71
NtRp3368
(dp3369
g74
(dp3370
g82
I3
ssg83
g3364
sg76
(lp3371
g1895
asbasbasbag69
(g85
g71
NtRp3372
(dp3373
g74
(dp3374
sg83
g2906
sg76
(lp3375
g69
(g90
g71
NtRp3376
(dp3377
g74
(dp3378
g94
g95
ssg83
g3372
sg76
(lp3379
S'SERVER_NAME'
p3380
asbag69
(g90
g71
NtRp3381
(dp3382
g74
(dp3383
g101
g102
ssg83
g3372
sg76
(lp3384
S':'
asbag69
(g90
g71
NtRp3385
(dp3386
g74
(dp3387
sg83
g3372
sg76
(lp3388
g69
(g70
g71
NtRp3389
(dp3390
g74
(dp3391
g82
I3
ssg83
g3385
sg76
(lp3392
g1917
asbasbasbag69
(g85
g71
NtRp3393
(dp3394
g74
(dp3395
sg83
g2906
sg76
(lp3396
g69
(g90
g71
NtRp3397
(dp3398
g74
(dp3399
g94
g95
ssg83
g3393
sg76
(lp3400
S'SERVER_PORT'
p3401
asbag69
(g90
g71
NtRp3402
(dp3403
g74
(dp3404
g101
g102
ssg83
g3393
sg76
(lp3405
S':'
asbag69
(g90
g71
NtRp3406
(dp3407
g74
(dp3408
sg83
g3393
sg76
(lp3409
g69
(g70
g71
NtRp3410
(dp3411
g74
(dp3412
g82
I3
ssg83
g3406
sg76
(lp3413
g1939
asbasbasbag69
(g85
g71
NtRp3414
(dp3415
g74
(dp3416
sg83
g2906
sg76
(lp3417
g69
(g90
g71
NtRp3418
(dp3419
g74
(dp3420
g94
g95
ssg83
g3414
sg76
(lp3421
S'SERVER_PROTOCOL'
p3422
asbag69
(g90
g71
NtRp3423
(dp3424
g74
(dp3425
g101
g102
ssg83
g3414
sg76
(lp3426
S':'
asbag69
(g90
g71
NtRp3427
(dp3428
g74
(dp3429
sg83
g3414
sg76
(lp3430
g69
(g70
g71
NtRp3431
(dp3432
g74
(dp3433
g82
I3
ssg83
g3427
sg76
(lp3434
g1961
asbasbasbag69
(g85
g71
NtRp3435
(dp3436
g74
(dp3437
sg83
g2906
sg76
(lp3438
g69
(g90
g71
NtRp3439
(dp3440
g74
(dp3441
g94
g95
ssg83
g3435
sg76
(lp3442
S'SERVER_SIGNATURE'
p3443
asbag69
(g90
g71
NtRp3444
(dp3445
g74
(dp3446
g101
g102
ssg83
g3435
sg76
(lp3447
S':'
asbag69
(g90
g71
NtRp3448
(dp3449
g74
(dp3450
sg83
g3435
sg76
(lp3451
g69
(g70
g71
NtRp3452
(dp3453
g74
(dp3454
g82
I3
ssg83
g3448
sg76
(lp3455
S''
asbasbasbag69
(g85
g71
NtRp3456
(dp3457
g74
(dp3458
sg83
g2906
sg76
(lp3459
g69
(g90
g71
NtRp3460
(dp3461
g74
(dp3462
g94
g95
ssg83
g3456
sg76
(lp3463
S'SERVER_SOFTWARE'
p3464
asbag69
(g90
g71
NtRp3465
(dp3466
g74
(dp3467
g101
g102
ssg83
g3456
sg76
(lp3468
S':'
asbag69
(g90
g71
NtRp3469
(dp3470
g74
(dp3471
sg83
g3456
sg76
(lp3472
g69
(g70
g71
NtRp3473
(dp3474
g74
(dp3475
g82
I3
ssg83
g3469
sg76
(lp3476
g2004
asbasbasbag69
(g85
g71
NtRp3477
(dp3478
g74
(dp3479
sg83
g2906
sg76
(lp3480
g69
(g90
g71
NtRp3481
(dp3482
g74
(dp3483
g94
g95
ssg83
g3477
sg76
(lp3484
S'mod_wsgi.application_group'
p3485
asbag69
(g90
g71
NtRp3486
(dp3487
g74
(dp3488
g101
g102
ssg83
g3477
sg76
(lp3489
S':'
asbag69
(g90
g71
NtRp3490
(dp3491
g74
(dp3492
sg83
g3477
sg76
(lp3493
g69
(g70
g71
NtRp3494
(dp3495
g74
(dp3496
g82
I3
ssg83
g3490
sg76
(lp3497
g1436
asbasbasbag69
(g85
g71
NtRp3498
(dp3499
g74
(dp3500
sg83
g2906
sg76
(lp3501
g69
(g90
g71
NtRp3502
(dp3503
g74
(dp3504
g94
g95
ssg83
g3498
sg76
(lp3505
S'mod_wsgi.callable_object'
p3506
asbag69
(g90
g71
NtRp3507
(dp3508
g74
(dp3509
g101
g102
ssg83
g3498
sg76
(lp3510
S':'
asbag69
(g90
g71
NtRp3511
(dp3512
g74
(dp3513
sg83
g3498
sg76
(lp3514
g69
(g70
g71
NtRp3515
(dp3516
g74
(dp3517
g82
I3
ssg83
g3511
sg76
(lp3518
g1458
asbasbasbag69
(g85
g71
NtRp3519
(dp3520
g74
(dp3521
sg83
g2906
sg76
(lp3522
g69
(g90
g71
NtRp3523
(dp3524
g74
(dp3525
g94
g95
ssg83
g3519
sg76
(lp3526
S'mod_wsgi.handler_script'
p3527
asbag69
(g90
g71
NtRp3528
(dp3529
g74
(dp3530
g101
g102
ssg83
g3519
sg76
(lp3531
S':'
asbag69
(g90
g71
NtRp3532
(dp3533
g74
(dp3534
sg83
g3519
sg76
(lp3535
g69
(g70
g71
NtRp3536
(dp3537
g74
(dp3538
g82
I3
ssg83
g3532
sg76
(lp3539
S''
asbasbasbag69
(g85
g71
NtRp3540
(dp3541
g74
(dp3542
sg83
g2906
sg76
(lp3543
g69
(g90
g71
NtRp3544
(dp3545
g74
(dp3546
g94
g95
ssg83
g3540
sg76
(lp3547
S'mod_wsgi.input_chunked'
p3548
asbag69
(g90
g71
NtRp3549
(dp3550
g74
(dp3551
g101
g102
ssg83
g3540
sg76
(lp3552
S':'
asbag69
(g90
g71
NtRp3553
(dp3554
g74
(dp3555
sg83
g3540
sg76
(lp3556
g69
(g70
g71
NtRp3557
(dp3558
g74
(dp3559
g82
I3
ssg83
g3553
sg76
(lp3560
S'0'
asbasbasbag69
(g85
g71
NtRp3561
(dp3562
g74
(dp3563
sg83
g2906
sg76
(lp3564
g69
(g90
g71
NtRp3565
(dp3566
g74
(dp3567
g94
g95
ssg83
g3561
sg76
(lp3568
S'mod_wsgi.listener_host'
p3569
asbag69
(g90
g71
NtRp3570
(dp3571
g74
(dp3572
g101
g102
ssg83
g3561
sg76
(lp3573
S':'
asbag69
(g90
g71
NtRp3574
(dp3575
g74
(dp3576
sg83
g3561
sg76
(lp3577
g69
(g70
g71
NtRp3578
(dp3579
g74
(dp3580
g82
I3
ssg83
g3574
sg76
(lp3581
S''
asbasbasbag69
(g85
g71
NtRp3582
(dp3583
g74
(dp3584
sg83
g2906
sg76
(lp3585
g69
(g90
g71
NtRp3586
(dp3587
g74
(dp3588
g94
g95
ssg83
g3582
sg76
(lp3589
S'mod_wsgi.listener_port'
p3590
asbag69
(g90
g71
NtRp3591
(dp3592
g74
(dp3593
g101
g102
ssg83
g3582
sg76
(lp3594
S':'
asbag69
(g90
g71
NtRp3595
(dp3596
g74
(dp3597
sg83
g3582
sg76
(lp3598
g69
(g70
g71
NtRp3599
(dp3600
g74
(dp3601
g82
I3
ssg83
g3595
sg76
(lp3602
g1543
asbasbasbag69
(g85
g71
NtRp3603
(dp3604
g74
(dp3605
sg83
g2906
sg76
(lp3606
g69
(g90
g71
NtRp3607
(dp3608
g74
(dp3609
g94
g95
ssg83
g3603
sg76
(lp3610
S'mod_wsgi.process_group'
p3611
asbag69
(g90
g71
NtRp3612
(dp3613
g74
(dp3614
g101
g102
ssg83
g3603
sg76
(lp3615
S':'
asbag69
(g90
g71
NtRp3616
(dp3617
g74
(dp3618
sg83
g3603
sg76
(lp3619
g69
(g70
g71
NtRp3620
(dp3621
g74
(dp3622
g82
I3
ssg83
g3616
sg76
(lp3623
S''
asbasbasbag69
(g85
g71
NtRp3624
(dp3625
g74
(dp3626
sg83
g2906
sg76
(lp3627
g69
(g90
g71
NtRp3628
(dp3629
g74
(dp3630
g94
g95
ssg83
g3624
sg76
(lp3631
S'mod_wsgi.request_handler'
p3632
asbag69
(g90
g71
NtRp3633
(dp3634
g74
(dp3635
g101
g102
ssg83
g3624
sg76
(lp3636
S':'
asbag69
(g90
g71
NtRp3637
(dp3638
g74
(dp3639
sg83
g3624
sg76
(lp3640
g69
(g70
g71
NtRp3641
(dp3642
g74
(dp3643
g82
I3
ssg83
g3637
sg76
(lp3644
g1586
asbasbasbag69
(g85
g71
NtRp3645
(dp3646
g74
(dp3647
sg83
g2906
sg76
(lp3648
g69
(g90
g71
NtRp3649
(dp3650
g74
(dp3651
g94
g95
ssg83
g3645
sg76
(lp3652
S'mod_wsgi.script_reloading'
p3653
asbag69
(g90
g71
NtRp3654
(dp3655
g74
(dp3656
g101
g102
ssg83
g3645
sg76
(lp3657
S':'
asbag69
(g90
g71
NtRp3658
(dp3659
g74
(dp3660
sg83
g3645
sg76
(lp3661
g69
(g70
g71
NtRp3662
(dp3663
g74
(dp3664
g82
I3
ssg83
g3658
sg76
(lp3665
S'1'
asbasbasbag69
(g85
g71
NtRp3666
(dp3667
g74
(dp3668
sg83
g2906
sg76
(lp3669
g69
(g90
g71
NtRp3670
(dp3671
g74
(dp3672
g94
g95
ssg83
g3666
sg76
(lp3673
S'mod_wsgi.version'
p3674
asbag69
(g90
g71
NtRp3675
(dp3676
g74
(dp3677
g101
g102
ssg83
g3666
sg76
(lp3678
S':'
asbag69
(g90
g71
NtRp3679
(dp3680
g74
(dp3681
sg83
g3666
sg76
(lp3682
g69
(g70
g71
NtRp3683
(dp3684
g74
(dp3685
g82
I3
ssg83
g3679
sg76
(lp3686
g69
(g78
g71
NtRp3687
(dp3688
g74
(dp3689
g82
I2
ssg83
Nsg76
(lp3690
g69
(g85
g71
NtRp3691
(dp3692
g74
(dp3693
sg83
g3687
sg76
(lp3694
g69
(g90
g71
NtRp3695
(dp3696
g74
(dp3697
sg83
g3691
sg76
(lp3698
g69
(g70
g71
NtRp3699
(dp3700
g74
(dp3701
g82
I2
ssg83
g3695
sg76
(lp3702
S'3'
asbasbasbag69
(g85
g71
NtRp3703
(dp3704
g74
(dp3705
sg83
g3687
sg76
(lp3706
g69
(g90
g71
NtRp3707
(dp3708
g74
(dp3709
sg83
g3703
sg76
(lp3710
g69
(g70
g71
NtRp3711
(dp3712
g74
(dp3713
g82
I2
ssg83
g3707
sg76
(lp3714
S'3'
asbasbasbasbasbasbasbag69
(g85
g71
NtRp3715
(dp3716
g74
(dp3717
sg83
g2906
sg76
(lp3718
g69
(g90
g71
NtRp3719
(dp3720
g74
(dp3721
g94
g95
ssg83
g3715
sg76
(lp3722
S'wsgi.errors'
p3723
asbag69
(g90
g71
NtRp3724
(dp3725
g74
(dp3726
g101
g102
ssg83
g3715
sg76
(lp3727
S':'
asbag69
(g90
g71
NtRp3728
(dp3729
g74
(dp3730
sg83
g3715
sg76
(lp3731
g69
(g70
g71
NtRp3732
(dp3733
g74
(dp3734
g82
I3
ssg83
g3728
sg76
(lp3735
S'<mod_wsgi.Log object at 0x110a2bf30>'
p3736
asbasbasbag69
(g85
g71
NtRp3737
(dp3738
g74
(dp3739
sg83
g2906
sg76
(lp3740
g69
(g90
g71
NtRp3741
(dp3742
g74
(dp3743
g94
g95
ssg83
g3737
sg76
(lp3744
S'wsgi.file_wrapper'
p3745
asbag69
(g90
g71
NtRp3746
(dp3747
g74
(dp3748
g101
g102
ssg83
g3737
sg76
(lp3749
S':'
asbag69
(g90
g71
NtRp3750
(dp3751
g74
(dp3752
sg83
g3737
sg76
(lp3753
g69
(g70
g71
NtRp3754
(dp3755
g74
(dp3756
g82
I3
ssg83
g3750
sg76
(lp3757
S'<built-in method file_wrapper of mod_wsgi.Adapter object at 0x110a7a210>'
p3758
asbasbasbag69
(g85
g71
NtRp3759
(dp3760
g74
(dp3761
sg83
g2906
sg76
(lp3762
g69
(g90
g71
NtRp3763
(dp3764
g74
(dp3765
g94
g95
ssg83
g3759
sg76
(lp3766
S'wsgi.input'
p3767
asbag69
(g90
g71
NtRp3768
(dp3769
g74
(dp3770
g101
g102
ssg83
g3759
sg76
(lp3771
S':'
asbag69
(g90
g71
NtRp3772
(dp3773
g74
(dp3774
sg83
g3759
sg76
(lp3775
g69
(g70
g71
NtRp3776
(dp3777
g74
(dp3778
g82
I3
ssg83
g3772
sg76
(lp3779
S'<cStringIO.StringO object at 0x110a29110>'
p3780
asbasbasbag69
(g85
g71
NtRp3781
(dp3782
g74
(dp3783
sg83
g2906
sg76
(lp3784
g69
(g90
g71
NtRp3785
(dp3786
g74
(dp3787
g94
g95
ssg83
g3781
sg76
(lp3788
S'wsgi.multiprocess'
p3789
asbag69
(g90
g71
NtRp3790
(dp3791
g74
(dp3792
g101
g102
ssg83
g3781
sg76
(lp3793
S':'
asbag69
(g90
g71
NtRp3794
(dp3795
g74
(dp3796
sg83
g3781
sg76
(lp3797
g69
(g70
g71
NtRp3798
(dp3799
g74
(dp3800
g82
I3
ssg83
g3794
sg76
(lp3801
g2201
asbasbasbag69
(g85
g71
NtRp3802
(dp3803
g74
(dp3804
sg83
g2906
sg76
(lp3805
g69
(g90
g71
NtRp3806
(dp3807
g74
(dp3808
g94
g95
ssg83
g3802
sg76
(lp3809
S'wsgi.multithread'
p3810
asbag69
(g90
g71
NtRp3811
(dp3812
g74
(dp3813
g101
g102
ssg83
g3802
sg76
(lp3814
S':'
asbag69
(g90
g71
NtRp3815
(dp3816
g74
(dp3817
sg83
g3802
sg76
(lp3818
g69
(g70
g71
NtRp3819
(dp3820
g74
(dp3821
g82
I3
ssg83
g3815
sg76
(lp3822
g112
asbasbasbag69
(g85
g71
NtRp3823
(dp3824
g74
(dp3825
sg83
g2906
sg76
(lp3826
g69
(g90
g71
NtRp3827
(dp3828
g74
(dp3829
g94
g95
ssg83
g3823
sg76
(lp3830
S'wsgi.run_once'
p3831
asbag69
(g90
g71
NtRp3832
(dp3833
g74
(dp3834
g101
g102
ssg83
g3823
sg76
(lp3835
S':'
asbag69
(g90
g71
NtRp3836
(dp3837
g74
(dp3838
sg83
g3823
sg76
(lp3839
g69
(g70
g71
NtRp3840
(dp3841
g74
(dp3842
g82
I3
ssg83
g3836
sg76
(lp3843
g112
asbasbasbag69
(g85
g71
NtRp3844
(dp3845
g74
(dp3846
sg83
g2906
sg76
(lp3847
g69
(g90
g71
NtRp3848
(dp3849
g74
(dp3850
g94
g95
ssg83
g3844
sg76
(lp3851
S'wsgi.url_scheme'
p3852
asbag69
(g90
g71
NtRp3853
(dp3854
g74
(dp3855
g101
g102
ssg83
g3844
sg76
(lp3856
S':'
asbag69
(g90
g71
NtRp3857
(dp3858
g74
(dp3859
sg83
g3844
sg76
(lp3860
g69
(g70
g71
NtRp3861
(dp3862
g74
(dp3863
g82
I3
ssg83
g3857
sg76
(lp3864
g2265
asbasbasbag69
(g85
g71
NtRp3865
(dp3866
g74
(dp3867
sg83
g2906
sg76
(lp3868
g69
(g90
g71
NtRp3869
(dp3870
g74
(dp3871
g94
g95
ssg83
g3865
sg76
(lp3872
S'wsgi.version'
p3873
asbag69
(g90
g71
NtRp3874
(dp3875
g74
(dp3876
g101
g102
ssg83
g3865
sg76
(lp3877
S':'
asbag69
(g90
g71
NtRp3878
(dp3879
g74
(dp3880
sg83
g3865
sg76
(lp3881
g69
(g70
g71
NtRp3882
(dp3883
g74
(dp3884
g82
I3
ssg83
g3878
sg76
(lp3885
S'1'
asbasbasbasbasbasbasbasbasbasbasbasbasbsS'frames'
p3886
(lp3887
(dp3888
S'file'
p3889
S'/Users/emir/Documents/beardcode/web2py/gluon/restricted.py'
p3890
sS'dump'
p3891
(dp3892
S'code'
p3893
S"'# -*- coding: utf-8 -*-\\n# this file is released ...nter,ti)\\n\\nresponse._vars=response._caller(index)\\n'"
p3894
sS'layer'
p3895
S"'/Users/emir/Documents/beardcode/web2py/applications/contador/controllers/default.py'"
p3896
sS'global compile2'
p3897
S'<function compile2>'
p3898
sS'ccode'
p3899
S'undefined'
p3900
ssS'lnum'
p3901
I204
sS'lines'
p3902
(dp3903
I199
S"    environment['__name__'] = '__restricted__'"
p3904
sI200
S'    try:'
p3905
sI201
S'        if type(code) == types.CodeType:'
p3906
sI202
S'            ccode = code'
p3907
sI203
S'        else:'
p3908
sI204
S'            ccode = compile2(code,layer)'
p3909
sI205
S'        exec ccode in environment'
p3910
sI206
S'    except HTTP:'
p3911
sI207
S'        raise'
p3912
sI208
S'    except RestrictedError:'
p3913
ssS'call'
p3914
S"(code='# -*- coding: utf-8 -*-\\n# this file is released ...nter,ti)\\n\\nresponse._vars=response._caller(index)\\n', environment={'A': <class 'gluon.html.A'>, 'Auth': <class 'gluon.tools.Auth'>, 'B': <class 'gluon.html.B'>, 'BEAUTIFY': <class 'gluon.html.BEAUTIFY'>, 'BODY': <class 'gluon.html.BODY'>, 'BR': <class 'gluon.html.BR'>, 'BUTTON': <class 'gluon.html.BUTTON'>, 'CAT': <class 'gluon.html.CAT'>, 'CENTER': <class 'gluon.html.CENTER'>, 'CLEANUP': <class 'gluon.validators.CLEANUP'>, ...}, layer='/Users/emir/Documents/beardcode/web2py/applications/contador/controllers/default.py')"
p3915
sS'func'
p3916
S'restricted'
p3917
sa(dp3918
g3889
S'/Users/emir/Documents/beardcode/web2py/gluon/restricted.py'
p3919
sg3891
(dp3920
S'builtincompile'
p3921
S'<built-in function compile>'
p3922
sS'code'
p3923
S"'# -*- coding: utf-8 -*-\\n# this file is released ...nter,ti)\\n\\nresponse._vars=response._caller(index)\\n'"
p3924
sS'code.rstrip'
p3925
S'<built-in method rstrip of str object>'
p3926
sS').replace'
p3927
g3900
sS'layer'
p3928
S"'/Users/emir/Documents/beardcode/web2py/applications/contador/controllers/default.py'"
p3929
ssg3901
I189
sg3902
(dp3930
I192
S'    """'
p3931
sI193
S'    runs code in environment and returns the output. if an exception occurs'
p3932
sI184
S''
sI185
S'def compile2(code,layer):'
p3933
sI186
S'    """'
p3934
sI187
S"    The +'\\n' is necessary else compile fails when code ends in a comment."
p3935
sI188
S'    """'
p3936
sI189
S"    return compile(code.rstrip().replace('\\r\\n','\\n')+'\\n', layer, 'exec')"
p3937
sI190
S''
sI191
S"def restricted(code, environment=None, layer='Unknown'):"
p3938
ssg3914
S"(code='# -*- coding: utf-8 -*-\\n# this file is released ...nter,ti)\\n\\nresponse._vars=response._caller(index)\\n', layer='/Users/emir/Documents/beardcode/web2py/applications/contador/controllers/default.py')"
p3939
sg3916
S'compile2'
p3940
sasS'pyver'
p3941
S'Python 2.6.7: /usr/bin/python'
p3942
sS'session'
p3943
g69
(g70
g71
NtRp3944
(dp3945
g74
(dp3946
sg76
(lp3947
g69
(g78
g71
NtRp3948
(dp3949
g74
(dp3950
g82
I5
ssg83
Nsg76
(lp3951
g69
(g85
g71
NtRp3952
(dp3953
g74
(dp3954
sg83
g3948
sg76
(lp3955
g69
(g90
g71
NtRp3956
(dp3957
g74
(dp3958
g94
g95
ssg83
g3952
sg76
(lp3959
S'counter'
p3960
asbag69
(g90
g71
NtRp3961
(dp3962
g74
(dp3963
g101
g102
ssg83
g3952
sg76
(lp3964
S':'
asbag69
(g90
g71
NtRp3965
(dp3966
g74
(dp3967
sg83
g3952
sg76
(lp3968
g69
(g70
g71
NtRp3969
(dp3970
g74
(dp3971
g82
I5
ssg83
g3965
sg76
(lp3972
S'4'
asbasbasbasbasbsS'etype'
p3973
S"<type 'exceptions.SyntaxError'>"
p3974
sS'date'
p3975
S'Fri Aug  3 10:51:29 2012'
p3976
sS'response'
p3977
g69
(g70
g71
NtRp3978
(dp3979
g74
(dp3980
sg76
(lp3981
g69
(g78
g71
NtRp3982
(dp3983
g74
(dp3984
g82
I5
ssg83
Nsg76
(lp3985
g69
(g85
g71
NtRp3986
(dp3987
g74
(dp3988
sg83
g3982
sg76
(lp3989
g69
(g90
g71
NtRp3990
(dp3991
g74
(dp3992
g94
g95
ssg83
g3986
sg76
(lp3993
g167
asbag69
(g90
g71
NtRp3994
(dp3995
g74
(dp3996
g101
g102
ssg83
g3986
sg76
(lp3997
S':'
asbag69
(g90
g71
NtRp3998
(dp3999
g74
(dp4000
sg83
g3986
sg76
(lp4001
g69
(g70
g71
NtRp4002
(dp4003
g74
(dp4004
g82
I5
ssg83
g3998
sg76
(lp4005
S'<cStringIO.StringO object at 0x11092e928>'
p4006
asbasbasbag69
(g85
g71
NtRp4007
(dp4008
g74
(dp4009
sg83
g3982
sg76
(lp4010
g69
(g90
g71
NtRp4011
(dp4012
g74
(dp4013
g94
g95
ssg83
g4007
sg76
(lp4014
g233
asbag69
(g90
g71
NtRp4015
(dp4016
g74
(dp4017
g101
g102
ssg83
g4007
sg76
(lp4018
S':'
asbag69
(g90
g71
NtRp4019
(dp4020
g74
(dp4021
sg83
g4007
sg76
(lp4022
g69
(g70
g71
NtRp4023
(dp4024
g74
(dp4025
g82
I5
ssg83
g4019
sg76
(lp4026
g69
(g78
g71
NtRp4027
(dp4028
g74
(dp4029
g82
I4
ssg83
Nsg76
(lp4030
g69
(g85
g71
NtRp4031
(dp4032
g74
(dp4033
sg83
g4027
sg76
(lp4034
g69
(g90
g71
NtRp4035
(dp4036
g74
(dp4037
g94
g95
ssg83
g4031
sg76
(lp4038
S'session_id_contador'
p4039
asbag69
(g90
g71
NtRp4040
(dp4041
g74
(dp4042
g101
g102
ssg83
g4031
sg76
(lp4043
S':'
asbag69
(g90
g71
NtRp4044
(dp4045
g74
(dp4046
sg83
g4031
sg76
(lp4047
g69
(g70
g71
NtRp4048
(dp4049
g74
(dp4050
g82
I4
ssg83
g4044
sg76
(lp4051
g69
(g78
g71
NtRp4052
(dp4053
g74
(dp4054
g82
I3
ssg83
Nsg76
(lp4055
g69
(g85
g71
NtRp4056
(dp4057
g74
(dp4058
sg83
g4052
sg76
(lp4059
g69
(g90
g71
NtRp4060
(dp4061
g74
(dp4062
g94
g95
ssg83
g4056
sg76
(lp4063
g283
asbag69
(g90
g71
NtRp4064
(dp4065
g74
(dp4066
g101
g102
ssg83
g4056
sg76
(lp4067
S':'
asbag69
(g90
g71
NtRp4068
(dp4069
g74
(dp4070
sg83
g4056
sg76
(lp4071
g69
(g70
g71
NtRp4072
(dp4073
g74
(dp4074
g82
I3
ssg83
g4068
sg76
(lp4075
S''
asbasbasbag69
(g85
g71
NtRp4076
(dp4077
g74
(dp4078
sg83
g4052
sg76
(lp4079
g69
(g90
g71
NtRp4080
(dp4081
g74
(dp4082
g94
g95
ssg83
g4076
sg76
(lp4083
g304
asbag69
(g90
g71
NtRp4084
(dp4085
g74
(dp4086
g101
g102
ssg83
g4076
sg76
(lp4087
S':'
asbag69
(g90
g71
NtRp4088
(dp4089
g74
(dp4090
sg83
g4076
sg76
(lp4091
g69
(g70
g71
NtRp4092
(dp4093
g74
(dp4094
g82
I3
ssg83
g4088
sg76
(lp4095
S''
asbasbasbag69
(g85
g71
NtRp4096
(dp4097
g74
(dp4098
sg83
g4052
sg76
(lp4099
g69
(g90
g71
NtRp4100
(dp4101
g74
(dp4102
g94
g95
ssg83
g4096
sg76
(lp4103
g325
asbag69
(g90
g71
NtRp4104
(dp4105
g74
(dp4106
g101
g102
ssg83
g4096
sg76
(lp4107
S':'
asbag69
(g90
g71
NtRp4108
(dp4109
g74
(dp4110
sg83
g4096
sg76
(lp4111
g69
(g70
g71
NtRp4112
(dp4113
g74
(dp4114
g82
I3
ssg83
g4108
sg76
(lp4115
S''
asbasbasbag69
(g85
g71
NtRp4116
(dp4117
g74
(dp4118
sg83
g4052
sg76
(lp4119
g69
(g90
g71
NtRp4120
(dp4121
g74
(dp4122
g94
g95
ssg83
g4116
sg76
(lp4123
g346
asbag69
(g90
g71
NtRp4124
(dp4125
g74
(dp4126
g101
g102
ssg83
g4116
sg76
(lp4127
S':'
asbag69
(g90
g71
NtRp4128
(dp4129
g74
(dp4130
sg83
g4116
sg76
(lp4131
g69
(g70
g71
NtRp4132
(dp4133
g74
(dp4134
g82
I3
ssg83
g4128
sg76
(lp4135
S''
asbasbasbag69
(g85
g71
NtRp4136
(dp4137
g74
(dp4138
sg83
g4052
sg76
(lp4139
g69
(g90
g71
NtRp4140
(dp4141
g74
(dp4142
g94
g95
ssg83
g4136
sg76
(lp4143
g367
asbag69
(g90
g71
NtRp4144
(dp4145
g74
(dp4146
g101
g102
ssg83
g4136
sg76
(lp4147
S':'
asbag69
(g90
g71
NtRp4148
(dp4149
g74
(dp4150
sg83
g4136
sg76
(lp4151
g69
(g70
g71
NtRp4152
(dp4153
g74
(dp4154
g82
I3
ssg83
g4148
sg76
(lp4155
S''
asbasbasbag69
(g85
g71
NtRp4156
(dp4157
g74
(dp4158
sg83
g4052
sg76
(lp4159
g69
(g90
g71
NtRp4160
(dp4161
g74
(dp4162
g94
g95
ssg83
g4156
sg76
(lp4163
g388
asbag69
(g90
g71
NtRp4164
(dp4165
g74
(dp4166
g101
g102
ssg83
g4156
sg76
(lp4167
S':'
asbag69
(g90
g71
NtRp4168
(dp4169
g74
(dp4170
sg83
g4156
sg76
(lp4171
g69
(g70
g71
NtRp4172
(dp4173
g74
(dp4174
g82
I3
ssg83
g4168
sg76
(lp4175
S'/'
asbasbasbag69
(g85
g71
NtRp4176
(dp4177
g74
(dp4178
sg83
g4052
sg76
(lp4179
g69
(g90
g71
NtRp4180
(dp4181
g74
(dp4182
g94
g95
ssg83
g4176
sg76
(lp4183
g409
asbag69
(g90
g71
NtRp4184
(dp4185
g74
(dp4186
g101
g102
ssg83
g4176
sg76
(lp4187
S':'
asbag69
(g90
g71
NtRp4188
(dp4189
g74
(dp4190
sg83
g4176
sg76
(lp4191
g69
(g70
g71
NtRp4192
(dp4193
g74
(dp4194
g82
I3
ssg83
g4188
sg76
(lp4195
S''
asbasbasbag69
(g85
g71
NtRp4196
(dp4197
g74
(dp4198
sg83
g4052
sg76
(lp4199
g69
(g90
g71
NtRp4200
(dp4201
g74
(dp4202
g94
g95
ssg83
g4196
sg76
(lp4203
g430
asbag69
(g90
g71
NtRp4204
(dp4205
g74
(dp4206
g101
g102
ssg83
g4196
sg76
(lp4207
S':'
asbag69
(g90
g71
NtRp4208
(dp4209
g74
(dp4210
sg83
g4196
sg76
(lp4211
g69
(g70
g71
NtRp4212
(dp4213
g74
(dp4214
g82
I3
ssg83
g4208
sg76
(lp4215
S''
asbasbasbasbasbasbasbasbasbasbasbag69
(g85
g71
NtRp4216
(dp4217
g74
(dp4218
sg83
g3982
sg76
(lp4219
g69
(g90
g71
NtRp4220
(dp4221
g74
(dp4222
g94
g95
ssg83
g4216
sg76
(lp4223
S'delimiters'
p4224
asbag69
(g90
g71
NtRp4225
(dp4226
g74
(dp4227
g101
g102
ssg83
g4216
sg76
(lp4228
S':'
asbag69
(g90
g71
NtRp4229
(dp4230
g74
(dp4231
sg83
g4216
sg76
(lp4232
g69
(g70
g71
NtRp4233
(dp4234
g74
(dp4235
g82
I5
ssg83
g4229
sg76
(lp4236
g69
(g78
g71
NtRp4237
(dp4238
g74
(dp4239
g82
I4
ssg83
Nsg76
(lp4240
g69
(g85
g71
NtRp4241
(dp4242
g74
(dp4243
sg83
g4237
sg76
(lp4244
g69
(g90
g71
NtRp4245
(dp4246
g74
(dp4247
sg83
g4241
sg76
(lp4248
g69
(g70
g71
NtRp4249
(dp4250
g74
(dp4251
g82
I4
ssg83
g4245
sg76
(lp4252
S'{{'
p4253
asbasbasbag69
(g85
g71
NtRp4254
(dp4255
g74
(dp4256
sg83
g4237
sg76
(lp4257
g69
(g90
g71
NtRp4258
(dp4259
g74
(dp4260
sg83
g4254
sg76
(lp4261
g69
(g70
g71
NtRp4262
(dp4263
g74
(dp4264
g82
I4
ssg83
g4258
sg76
(lp4265
S'}}'
p4266
asbasbasbasbasbasbasbag69
(g85
g71
NtRp4267
(dp4268
g74
(dp4269
sg83
g3982
sg76
(lp4270
g69
(g90
g71
NtRp4271
(dp4272
g74
(dp4273
g94
g95
ssg83
g4267
sg76
(lp4274
S'files'
p4275
asbag69
(g90
g71
NtRp4276
(dp4277
g74
(dp4278
g101
g102
ssg83
g4267
sg76
(lp4279
S':'
asbag69
(g90
g71
NtRp4280
(dp4281
g74
(dp4282
sg83
g4267
sg76
(lp4283
g69
(g70
g71
NtRp4284
(dp4285
g74
(dp4286
g82
I5
ssg83
g4280
sg76
(lp4287
g69
(g78
g71
NtRp4288
(dp4289
g74
(dp4290
g82
I4
ssg83
Nsg76
(lp4291
sbasbasbasbag69
(g85
g71
NtRp4292
(dp4293
g74
(dp4294
sg83
g3982
sg76
(lp4295
g69
(g90
g71
NtRp4296
(dp4297
g74
(dp4298
g94
g95
ssg83
g4292
sg76
(lp4299
S'flash'
p4300
asbag69
(g90
g71
NtRp4301
(dp4302
g74
(dp4303
g101
g102
ssg83
g4292
sg76
(lp4304
S':'
asbag69
(g90
g71
NtRp4305
(dp4306
g74
(dp4307
sg83
g4292
sg76
(lp4308
g69
(g70
g71
NtRp4309
(dp4310
g74
(dp4311
g82
I5
ssg83
g4305
sg76
(lp4312
S''
asbasbasbag69
(g85
g71
NtRp4313
(dp4314
g74
(dp4315
sg83
g3982
sg76
(lp4316
g69
(g90
g71
NtRp4317
(dp4318
g74
(dp4319
g94
g95
ssg83
g4313
sg76
(lp4320
S'generic_patterns'
p4321
asbag69
(g90
g71
NtRp4322
(dp4323
g74
(dp4324
g101
g102
ssg83
g4313
sg76
(lp4325
S':'
asbag69
(g90
g71
NtRp4326
(dp4327
g74
(dp4328
sg83
g4313
sg76
(lp4329
g69
(g70
g71
NtRp4330
(dp4331
g74
(dp4332
g82
I5
ssg83
g4326
sg76
(lp4333
g69
(g78
g71
NtRp4334
(dp4335
g74
(dp4336
g82
I4
ssg83
Nsg76
(lp4337
g69
(g85
g71
NtRp4338
(dp4339
g74
(dp4340
sg83
g4334
sg76
(lp4341
g69
(g90
g71
NtRp4342
(dp4343
g74
(dp4344
sg83
g4338
sg76
(lp4345
g69
(g70
g71
NtRp4346
(dp4347
g74
(dp4348
g82
I4
ssg83
g4342
sg76
(lp4349
S'*'
asbasbasbasbasbasbasbag69
(g85
g71
NtRp4350
(dp4351
g74
(dp4352
sg83
g3982
sg76
(lp4353
g69
(g90
g71
NtRp4354
(dp4355
g74
(dp4356
g94
g95
ssg83
g4350
sg76
(lp4357
S'headers'
p4358
asbag69
(g90
g71
NtRp4359
(dp4360
g74
(dp4361
g101
g102
ssg83
g4350
sg76
(lp4362
S':'
asbag69
(g90
g71
NtRp4363
(dp4364
g74
(dp4365
sg83
g4350
sg76
(lp4366
g69
(g70
g71
NtRp4367
(dp4368
g74
(dp4369
g82
I5
ssg83
g4363
sg76
(lp4370
g69
(g78
g71
NtRp4371
(dp4372
g74
(dp4373
g82
I4
ssg83
Nsg76
(lp4374
g69
(g85
g71
NtRp4375
(dp4376
g74
(dp4377
sg83
g4371
sg76
(lp4378
g69
(g90
g71
NtRp4379
(dp4380
g74
(dp4381
g94
g95
ssg83
g4375
sg76
(lp4382
S'Cache-Control'
p4383
asbag69
(g90
g71
NtRp4384
(dp4385
g74
(dp4386
g101
g102
ssg83
g4375
sg76
(lp4387
S':'
asbag69
(g90
g71
NtRp4388
(dp4389
g74
(dp4390
sg83
g4375
sg76
(lp4391
g69
(g70
g71
NtRp4392
(dp4393
g74
(dp4394
g82
I4
ssg83
g4388
sg76
(lp4395
S'no-store, no-cache, must-revalidate, post-check=0, pre-check=0'
p4396
asbasbasbag69
(g85
g71
NtRp4397
(dp4398
g74
(dp4399
sg83
g4371
sg76
(lp4400
g69
(g90
g71
NtRp4401
(dp4402
g74
(dp4403
g94
g95
ssg83
g4397
sg76
(lp4404
S'Content-Type'
p4405
asbag69
(g90
g71
NtRp4406
(dp4407
g74
(dp4408
g101
g102
ssg83
g4397
sg76
(lp4409
S':'
asbag69
(g90
g71
NtRp4410
(dp4411
g74
(dp4412
sg83
g4397
sg76
(lp4413
g69
(g70
g71
NtRp4414
(dp4415
g74
(dp4416
g82
I4
ssg83
g4410
sg76
(lp4417
S'text/html; charset=utf-8'
p4418
asbasbasbag69
(g85
g71
NtRp4419
(dp4420
g74
(dp4421
sg83
g4371
sg76
(lp4422
g69
(g90
g71
NtRp4423
(dp4424
g74
(dp4425
g94
g95
ssg83
g4419
sg76
(lp4426
S'Expires'
p4427
asbag69
(g90
g71
NtRp4428
(dp4429
g74
(dp4430
g101
g102
ssg83
g4419
sg76
(lp4431
S':'
asbag69
(g90
g71
NtRp4432
(dp4433
g74
(dp4434
sg83
g4419
sg76
(lp4435
g69
(g70
g71
NtRp4436
(dp4437
g74
(dp4438
g82
I4
ssg83
g4432
sg76
(lp4439
S'Fri, 03 Aug 2012 15:51:29 GMT'
p4440
asbasbasbag69
(g85
g71
NtRp4441
(dp4442
g74
(dp4443
sg83
g4371
sg76
(lp4444
g69
(g90
g71
NtRp4445
(dp4446
g74
(dp4447
g94
g95
ssg83
g4441
sg76
(lp4448
S'Pragma'
p4449
asbag69
(g90
g71
NtRp4450
(dp4451
g74
(dp4452
g101
g102
ssg83
g4441
sg76
(lp4453
S':'
asbag69
(g90
g71
NtRp4454
(dp4455
g74
(dp4456
sg83
g4441
sg76
(lp4457
g69
(g70
g71
NtRp4458
(dp4459
g74
(dp4460
g82
I4
ssg83
g4454
sg76
(lp4461
S'no-cache'
p4462
asbasbasbag69
(g85
g71
NtRp4463
(dp4464
g74
(dp4465
sg83
g4371
sg76
(lp4466
g69
(g90
g71
NtRp4467
(dp4468
g74
(dp4469
g94
g95
ssg83
g4463
sg76
(lp4470
S'X-Powered-By'
p4471
asbag69
(g90
g71
NtRp4472
(dp4473
g74
(dp4474
g101
g102
ssg83
g4463
sg76
(lp4475
S':'
asbag69
(g90
g71
NtRp4476
(dp4477
g74
(dp4478
sg83
g4463
sg76
(lp4479
g69
(g70
g71
NtRp4480
(dp4481
g74
(dp4482
g82
I4
ssg83
g4476
sg76
(lp4483
S'web2py'
p4484
asbasbasbasbasbasbasbag69
(g85
g71
NtRp4485
(dp4486
g74
(dp4487
sg83
g3982
sg76
(lp4488
g69
(g90
g71
NtRp4489
(dp4490
g74
(dp4491
g94
g95
ssg83
g4485
sg76
(lp4492
S'menu'
p4493
asbag69
(g90
g71
NtRp4494
(dp4495
g74
(dp4496
g101
g102
ssg83
g4485
sg76
(lp4497
S':'
asbag69
(g90
g71
NtRp4498
(dp4499
g74
(dp4500
sg83
g4485
sg76
(lp4501
g69
(g70
g71
NtRp4502
(dp4503
g74
(dp4504
g82
I5
ssg83
g4498
sg76
(lp4505
g69
(g78
g71
NtRp4506
(dp4507
g74
(dp4508
g82
I4
ssg83
Nsg76
(lp4509
g69
(g85
g71
NtRp4510
(dp4511
g74
(dp4512
sg83
g4506
sg76
(lp4513
g69
(g90
g71
NtRp4514
(dp4515
g74
(dp4516
sg83
g4510
sg76
(lp4517
g69
(g70
g71
NtRp4518
(dp4519
g74
(dp4520
g82
I4
ssg83
g4514
sg76
(lp4521
g69
(g78
g71
NtRp4522
(dp4523
g74
(dp4524
g82
I3
ssg83
Nsg76
(lp4525
g69
(g85
g71
NtRp4526
(dp4527
g74
(dp4528
sg83
g4522
sg76
(lp4529
g69
(g90
g71
NtRp4530
(dp4531
g74
(dp4532
sg83
g4526
sg76
(lp4533
g69
(g70
g71
NtRp4534
(dp4535
g74
(dp4536
g82
I3
ssg83
g4530
sg76
(lp4537
cgluon.languages
lazyT_unpickle
p4538
(S't\x04\x00\x00\x00Home'
tRp4539
asbasbasbag69
(g85
g71
NtRp4540
(dp4541
g74
(dp4542
sg83
g4522
sg76
(lp4543
g69
(g90
g71
NtRp4544
(dp4545
g74
(dp4546
sg83
g4540
sg76
(lp4547
g69
(g70
g71
NtRp4548
(dp4549
g74
(dp4550
g82
I3
ssg83
g4544
sg76
(lp4551
g112
asbasbasbag69
(g85
g71
NtRp4552
(dp4553
g74
(dp4554
sg83
g4522
sg76
(lp4555
g69
(g90
g71
NtRp4556
(dp4557
g74
(dp4558
sg83
g4552
sg76
(lp4559
g69
(g70
g71
NtRp4560
(dp4561
g74
(dp4562
g82
I3
ssg83
g4556
sg76
(lp4563
S'/contador/default/index'
p4564
asbasbasbag69
(g85
g71
NtRp4565
(dp4566
g74
(dp4567
sg83
g4522
sg76
(lp4568
g69
(g90
g71
NtRp4569
(dp4570
g74
(dp4571
sg83
g4565
sg76
(lp4572
g69
(g70
g71
NtRp4573
(dp4574
g74
(dp4575
g82
I3
ssg83
g4569
sg76
(lp4576
g69
(g78
g71
NtRp4577
(dp4578
g74
(dp4579
g82
I2
ssg83
Nsg76
(lp4580
sbasbasbasbasbasbasbasbag69
(g85
g71
NtRp4581
(dp4582
g74
(dp4583
sg83
g4506
sg76
(lp4584
g69
(g90
g71
NtRp4585
(dp4586
g74
(dp4587
sg83
g4581
sg76
(lp4588
g69
(g70
g71
NtRp4589
(dp4590
g74
(dp4591
g82
I4
ssg83
g4585
sg76
(lp4592
g69
(g78
g71
NtRp4593
(dp4594
g74
(dp4595
g82
I3
ssg83
Nsg76
(lp4596
g69
(g85
g71
NtRp4597
(dp4598
g74
(dp4599
sg83
g4593
sg76
(lp4600
g69
(g90
g71
NtRp4601
(dp4602
g74
(dp4603
sg83
g4597
sg76
(lp4604
g69
(g70
g71
NtRp4605
(dp4606
g74
(dp4607
g82
I3
ssg83
g4601
sg76
(lp4608
g69
(cgluon.html
SPAN
p4609
g71
NtRp4610
(dp4611
g74
(dp4612
g94
S'color:yellow'
p4613
ssg83
Nsg76
(lp4614
g4484
asbasbasbasbag69
(g85
g71
NtRp4615
(dp4616
g74
(dp4617
sg83
g4593
sg76
(lp4618
g69
(g90
g71
NtRp4619
(dp4620
g74
(dp4621
sg83
g4615
sg76
(lp4622
g69
(g70
g71
NtRp4623
(dp4624
g74
(dp4625
g82
I3
ssg83
g4619
sg76
(lp4626
g112
asbasbasbag69
(g85
g71
NtRp4627
(dp4628
g74
(dp4629
sg83
g4593
sg76
(lp4630
g69
(g90
g71
NtRp4631
(dp4632
g74
(dp4633
sg83
g4627
sg76
(lp4634
g69
(g70
g71
NtRp4635
(dp4636
g74
(dp4637
g82
I3
ssg83
g4631
sg76
(lp4638
S'None'
p4639
asbasbasbag69
(g85
g71
NtRp4640
(dp4641
g74
(dp4642
sg83
g4593
sg76
(lp4643
g69
(g90
g71
NtRp4644
(dp4645
g74
(dp4646
sg83
g4640
sg76
(lp4647
g69
(g70
g71
NtRp4648
(dp4649
g74
(dp4650
g82
I3
ssg83
g4644
sg76
(lp4651
g69
(g78
g71
NtRp4652
(dp4653
g74
(dp4654
g82
I2
ssg83
Nsg76
(lp4655
g69
(g85
g71
NtRp4656
(dp4657
g74
(dp4658
sg83
g4652
sg76
(lp4659
g69
(g90
g71
NtRp4660
(dp4661
g74
(dp4662
sg83
g4656
sg76
(lp4663
g69
(g70
g71
NtRp4664
(dp4665
g74
(dp4666
g82
I2
ssg83
g4660
sg76
(lp4667
g69
(g78
g71
NtRp4668
(dp4669
g74
(dp4670
g82
I1
ssg83
Nsg76
(lp4671
g69
(g85
g71
NtRp4672
(dp4673
g74
(dp4674
sg83
g4668
sg76
(lp4675
g69
(g90
g71
NtRp4676
(dp4677
g74
(dp4678
sg83
g4672
sg76
(lp4679
g69
(g70
g71
NtRp4680
(dp4681
g74
(dp4682
g82
I1
ssg83
g4676
sg76
(lp4683
g4538
(S's\x08\x00\x00\x00My Sites'
tRp4684
asbasbasbag69
(g85
g71
NtRp4685
(dp4686
g74
(dp4687
sg83
g4668
sg76
(lp4688
g69
(g90
g71
NtRp4689
(dp4690
g74
(dp4691
sg83
g4685
sg76
(lp4692
g69
(g70
g71
NtRp4693
(dp4694
g74
(dp4695
g82
I1
ssg83
g4689
sg76
(lp4696
I00
asbasbasbag69
(g85
g71
NtRp4697
(dp4698
g74
(dp4699
sg83
g4668
sg76
(lp4700
g69
(g90
g71
NtRp4701
(dp4702
g74
(dp4703
sg83
g4697
sg76
(lp4704
g69
(g70
g71
NtRp4705
(dp4706
g74
(dp4707
g82
I1
ssg83
g4701
sg76
(lp4708
S'/admin/default/site'
p4709
asbasbasbasbasbasbasbag69
(g85
g71
NtRp4710
(dp4711
g74
(dp4712
sg83
g4652
sg76
(lp4713
g69
(g90
g71
NtRp4714
(dp4715
g74
(dp4716
sg83
g4710
sg76
(lp4717
g69
(g70
g71
NtRp4718
(dp4719
g74
(dp4720
g82
I2
ssg83
g4714
sg76
(lp4721
g69
(g78
g71
NtRp4722
(dp4723
g74
(dp4724
g82
I1
ssg83
Nsg76
(lp4725
g69
(g85
g71
NtRp4726
(dp4727
g74
(dp4728
sg83
g4722
sg76
(lp4729
g69
(g90
g71
NtRp4730
(dp4731
g74
(dp4732
sg83
g4726
sg76
(lp4733
g69
(g70
g71
NtRp4734
(dp4735
g74
(dp4736
g82
I1
ssg83
g4730
sg76
(lp4737
g4538
(S's\x08\x00\x00\x00This App'
tRp4738
asbasbasbag69
(g85
g71
NtRp4739
(dp4740
g74
(dp4741
sg83
g4722
sg76
(lp4742
g69
(g90
g71
NtRp4743
(dp4744
g74
(dp4745
sg83
g4739
sg76
(lp4746
g69
(g70
g71
NtRp4747
(dp4748
g74
(dp4749
g82
I1
ssg83
g4743
sg76
(lp4750
I00
asbasbasbag69
(g85
g71
NtRp4751
(dp4752
g74
(dp4753
sg83
g4722
sg76
(lp4754
g69
(g90
g71
NtRp4755
(dp4756
g74
(dp4757
sg83
g4751
sg76
(lp4758
g69
(g70
g71
NtRp4759
(dp4760
g74
(dp4761
g82
I1
ssg83
g4755
sg76
(lp4762
S'/admin/default/design/contador'
p4763
asbasbasbag69
(g85
g71
NtRp4764
(dp4765
g74
(dp4766
sg83
g4722
sg76
(lp4767
g69
(g90
g71
NtRp4768
(dp4769
g74
(dp4770
sg83
g4764
sg76
(lp4771
g69
(g70
g71
NtRp4772
(dp4773
g74
(dp4774
g82
I1
ssg83
g4768
sg76
(lp4775
(lp4776
(g4538
(S't\x0b\x00\x00\x00Controlador'
tRp4777
I00
S'/admin/default/edit/contador/controllers/default.py'
tp4778
a(g4538
(S't\x05\x00\x00\x00Vista'
tRp4779
I00
S'/admin/default/edit/contador/views/default/index.html'
tp4780
a(g4538
(S's\x12\x00\x00\x00Dise\xc3\xb1o de p\xc3\xa1gina'
tRp4781
I00
S'/admin/default/edit/contador/views/layout.html'
tp4782
a(g4538
(S's\x0e\x00\x00\x00Hoja de estilo'
tRp4783
I00
S'/admin/default/edit/contador/static/css/web2py.css'
tp4784
a(g4538
(S's\x0b\x00\x00\x00Modelo "db"'
tRp4785
I00
S'/admin/default/edit/contador/models/db.py'
tp4786
a(g4538
(S's\r\x00\x00\x00Modelo "menu"'
tRp4787
I00
S'/admin/default/edit/contador/models/menu.py'
tp4788
a(g4538
(S's\r\x00\x00\x00Base de datos'
tRp4789
I00
S'/contador/appadmin/index'
tp4790
a(g4538
(S't\x06\x00\x00\x00Errors'
tRp4791
I00
S'/admin/default/errors/contador'
tp4792
a(g4538
(S's\t\x00\x00\x00Acerca de'
tRp4793
I00
S'/admin/default/about/contador'
tp4794
aasbasbasbasbasbasbasbag69
(g85
g71
NtRp4795
(dp4796
g74
(dp4797
sg83
g4652
sg76
(lp4798
g69
(g90
g71
NtRp4799
(dp4800
g74
(dp4801
sg83
g4795
sg76
(lp4802
g69
(g70
g71
NtRp4803
(dp4804
g74
(dp4805
g82
I2
ssg83
g4799
sg76
(lp4806
g69
(g78
g71
NtRp4807
(dp4808
g74
(dp4809
g82
I1
ssg83
Nsg76
(lp4810
g69
(g85
g71
NtRp4811
(dp4812
g74
(dp4813
sg83
g4807
sg76
(lp4814
g69
(g90
g71
NtRp4815
(dp4816
g74
(dp4817
sg83
g4811
sg76
(lp4818
g69
(g70
g71
NtRp4819
(dp4820
g74
(dp4821
g82
I1
ssg83
g4815
sg76
(lp4822
S'web2py.com'
p4823
asbasbasbag69
(g85
g71
NtRp4824
(dp4825
g74
(dp4826
sg83
g4807
sg76
(lp4827
g69
(g90
g71
NtRp4828
(dp4829
g74
(dp4830
sg83
g4824
sg76
(lp4831
g69
(g70
g71
NtRp4832
(dp4833
g74
(dp4834
g82
I1
ssg83
g4828
sg76
(lp4835
I00
asbasbasbag69
(g85
g71
NtRp4836
(dp4837
g74
(dp4838
sg83
g4807
sg76
(lp4839
g69
(g90
g71
NtRp4840
(dp4841
g74
(dp4842
sg83
g4836
sg76
(lp4843
g69
(g70
g71
NtRp4844
(dp4845
g74
(dp4846
g82
I1
ssg83
g4840
sg76
(lp4847
S'http://www.web2py.com'
p4848
asbasbasbag69
(g85
g71
NtRp4849
(dp4850
g74
(dp4851
sg83
g4807
sg76
(lp4852
g69
(g90
g71
NtRp4853
(dp4854
g74
(dp4855
sg83
g4849
sg76
(lp4856
g69
(g70
g71
NtRp4857
(dp4858
g74
(dp4859
g82
I1
ssg83
g4853
sg76
(lp4860
(lp4861
(g4538
(S't\x08\x00\x00\x00Download'
tRp4862
I00
S'http://www.web2py.com/examples/default/download'
p4863
tp4864
a(g4538
(S't\x07\x00\x00\x00Support'
tRp4865
I00
S'http://www.web2py.com/examples/default/support'
p4866
tp4867
a(g4538
(S't\x04\x00\x00\x00Demo'
tRp4868
I00
S'http://web2py.com/demo_admin'
p4869
tp4870
a(g4538
(S's\x0e\x00\x00\x00Quick Examples'
tRp4871
I00
S'http://web2py.com/examples/default/examples'
p4872
tp4873
a(g4538
(S't\x03\x00\x00\x00FAQ'
tRp4874
I00
S'http://web2py.com/AlterEgo'
p4875
tp4876
a(g4538
(S't\x06\x00\x00\x00Videos'
tRp4877
I00
S'http://www.web2py.com/examples/default/videos/'
p4878
tp4879
a(g4538
(S's\x11\x00\x00\x00Free Applications'
tRp4880
I00
S'http://web2py.com/appliances'
p4881
tp4882
a(g4538
(S't\x07\x00\x00\x00Plugins'
tRp4883
I00
S'http://web2py.com/plugins'
p4884
tp4885
a(g4538
(S't\x07\x00\x00\x00Layouts'
tRp4886
I00
S'http://web2py.com/layouts'
p4887
tp4888
a(g4538
(S't\x07\x00\x00\x00Recipes'
tRp4889
I00
S'http://web2pyslices.com/'
p4890
tp4891
a(g4538
(S't\x08\x00\x00\x00Semantic'
tRp4892
I00
S'http://web2py.com/semantic'
p4893
tp4894
aasbasbasbasbasbasbasbag69
(g85
g71
NtRp4895
(dp4896
g74
(dp4897
sg83
g4652
sg76
(lp4898
g69
(g90
g71
NtRp4899
(dp4900
g74
(dp4901
sg83
g4895
sg76
(lp4902
g69
(g70
g71
NtRp4903
(dp4904
g74
(dp4905
g82
I2
ssg83
g4899
sg76
(lp4906
g69
(g78
g71
NtRp4907
(dp4908
g74
(dp4909
g82
I1
ssg83
Nsg76
(lp4910
g69
(g85
g71
NtRp4911
(dp4912
g74
(dp4913
sg83
g4907
sg76
(lp4914
g69
(g90
g71
NtRp4915
(dp4916
g74
(dp4917
sg83
g4911
sg76
(lp4918
g69
(g70
g71
NtRp4919
(dp4920
g74
(dp4921
g82
I1
ssg83
g4915
sg76
(lp4922
g4538
(S's\x0e\x00\x00\x00Documentaci\xc3\xb3n'
tRp4923
asbasbasbag69
(g85
g71
NtRp4924
(dp4925
g74
(dp4926
sg83
g4907
sg76
(lp4927
g69
(g90
g71
NtRp4928
(dp4929
g74
(dp4930
sg83
g4924
sg76
(lp4931
g69
(g70
g71
NtRp4932
(dp4933
g74
(dp4934
g82
I1
ssg83
g4928
sg76
(lp4935
I00
asbasbasbag69
(g85
g71
NtRp4936
(dp4937
g74
(dp4938
sg83
g4907
sg76
(lp4939
g69
(g90
g71
NtRp4940
(dp4941
g74
(dp4942
sg83
g4936
sg76
(lp4943
g69
(g70
g71
NtRp4944
(dp4945
g74
(dp4946
g82
I1
ssg83
g4940
sg76
(lp4947
S'http://www.web2py.com/book'
p4948
asbasbasbag69
(g85
g71
NtRp4949
(dp4950
g74
(dp4951
sg83
g4907
sg76
(lp4952
g69
(g90
g71
NtRp4953
(dp4954
g74
(dp4955
sg83
g4949
sg76
(lp4956
g69
(g70
g71
NtRp4957
(dp4958
g74
(dp4959
g82
I1
ssg83
g4953
sg76
(lp4960
(lp4961
(g4538
(S't\x07\x00\x00\x00Preface'
tRp4962
I00
S'http://www.web2py.com/book/default/chapter/00'
p4963
tp4964
a(g4538
(S't\x0c\x00\x00\x00Introduction'
tRp4965
I00
S'http://www.web2py.com/book/default/chapter/01'
p4966
tp4967
a(g4538
(S't\x06\x00\x00\x00Python'
tRp4968
I00
S'http://www.web2py.com/book/default/chapter/02'
p4969
tp4970
a(g4538
(S't\x08\x00\x00\x00Overview'
tRp4971
I00
S'http://www.web2py.com/book/default/chapter/03'
p4972
tp4973
a(g4538
(S's\x08\x00\x00\x00The Core'
tRp4974
I00
S'http://www.web2py.com/book/default/chapter/04'
p4975
tp4976
a(g4538
(S's\t\x00\x00\x00The Views'
tRp4977
I00
S'http://www.web2py.com/book/default/chapter/05'
p4978
tp4979
a(g4538
(S's\r\x00\x00\x00Base de datos'
tRp4980
I00
S'http://www.web2py.com/book/default/chapter/06'
p4981
tp4982
a(g4538
(S's\x14\x00\x00\x00Forms and Validators'
tRp4983
I00
S'http://www.web2py.com/book/default/chapter/07'
p4984
tp4985
a(g4538
(S's\r\x00\x00\x00Email and SMS'
tRp4986
I00
S'http://www.web2py.com/book/default/chapter/08'
p4987
tp4988
a(g4538
(S's\x0e\x00\x00\x00Access Control'
tRp4989
I00
S'http://www.web2py.com/book/default/chapter/09'
p4990
tp4991
a(g4538
(S't\x08\x00\x00\x00Services'
tRp4992
I00
S'http://www.web2py.com/book/default/chapter/10'
p4993
tp4994
a(g4538
(S's\x0c\x00\x00\x00Ajax Recipes'
tRp4995
I00
S'http://www.web2py.com/book/default/chapter/11'
p4996
tp4997
a(g4538
(S's\x16\x00\x00\x00Components and Plugins'
tRp4998
I00
S'http://www.web2py.com/book/default/chapter/12'
p4999
tp5000
a(g4538
(S's\x12\x00\x00\x00Deployment Recipes'
tRp5001
I00
S'http://www.web2py.com/book/default/chapter/13'
p5002
tp5003
a(g4538
(S's\r\x00\x00\x00Other Recipes'
tRp5004
I00
S'http://www.web2py.com/book/default/chapter/14'
p5005
tp5006
a(g4538
(S's\r\x00\x00\x00Buy this book'
tRp5007
I00
S'http://stores.lulu.com/web2py'
p5008
tp5009
aasbasbasbasbasbasbasbag69
(g85
g71
NtRp5010
(dp5011
g74
(dp5012
sg83
g4652
sg76
(lp5013
g69
(g90
g71
NtRp5014
(dp5015
g74
(dp5016
sg83
g5010
sg76
(lp5017
g69
(g70
g71
NtRp5018
(dp5019
g74
(dp5020
g82
I2
ssg83
g5014
sg76
(lp5021
g69
(g78
g71
NtRp5022
(dp5023
g74
(dp5024
g82
I1
ssg83
Nsg76
(lp5025
g69
(g85
g71
NtRp5026
(dp5027
g74
(dp5028
sg83
g5022
sg76
(lp5029
g69
(g90
g71
NtRp5030
(dp5031
g74
(dp5032
sg83
g5026
sg76
(lp5033
g69
(g70
g71
NtRp5034
(dp5035
g74
(dp5036
g82
I1
ssg83
g5030
sg76
(lp5037
g4538
(S't\t\x00\x00\x00Community'
tRp5038
asbasbasbag69
(g85
g71
NtRp5039
(dp5040
g74
(dp5041
sg83
g5022
sg76
(lp5042
g69
(g90
g71
NtRp5043
(dp5044
g74
(dp5045
sg83
g5039
sg76
(lp5046
g69
(g70
g71
NtRp5047
(dp5048
g74
(dp5049
g82
I1
ssg83
g5043
sg76
(lp5050
I00
asbasbasbag69
(g85
g71
NtRp5051
(dp5052
g74
(dp5053
sg83
g5022
sg76
(lp5054
g69
(g90
g71
NtRp5055
(dp5056
g74
(dp5057
sg83
g5051
sg76
(lp5058
g69
(g70
g71
NtRp5059
(dp5060
g74
(dp5061
g82
I1
ssg83
g5055
sg76
(lp5062
Nasbasbasbag69
(g85
g71
NtRp5063
(dp5064
g74
(dp5065
sg83
g5022
sg76
(lp5066
g69
(g90
g71
NtRp5067
(dp5068
g74
(dp5069
sg83
g5063
sg76
(lp5070
g69
(g70
g71
NtRp5071
(dp5072
g74
(dp5073
g82
I1
ssg83
g5067
sg76
(lp5074
(lp5075
(g4538
(S't\x06\x00\x00\x00Groups'
tRp5076
I00
S'http://www.web2py.com/examples/default/usergroups'
p5077
tp5078
a(g4538
(S't\x07\x00\x00\x00Twitter'
tRp5079
I00
S'http://twitter.com/web2py'
p5080
tp5081
a(g4538
(S's\t\x00\x00\x00Live Chat'
tRp5082
I00
S'http://webchat.freenode.net/?channels=web2py'
p5083
tp5084
aasbasbasbasbasbasbasbag69
(g85
g71
NtRp5085
(dp5086
g74
(dp5087
sg83
g4652
sg76
(lp5088
g69
(g90
g71
NtRp5089
(dp5090
g74
(dp5091
sg83
g5085
sg76
(lp5092
g69
(g70
g71
NtRp5093
(dp5094
g74
(dp5095
g82
I2
ssg83
g5089
sg76
(lp5096
g69
(g78
g71
NtRp5097
(dp5098
g74
(dp5099
g82
I1
ssg83
Nsg76
(lp5100
g69
(g85
g71
NtRp5101
(dp5102
g74
(dp5103
sg83
g5097
sg76
(lp5104
g69
(g90
g71
NtRp5105
(dp5106
g74
(dp5107
sg83
g5101
sg76
(lp5108
g69
(g70
g71
NtRp5109
(dp5110
g74
(dp5111
g82
I1
ssg83
g5105
sg76
(lp5112
g4538
(S't\x07\x00\x00\x00Plugins'
tRp5113
asbasbasbag69
(g85
g71
NtRp5114
(dp5115
g74
(dp5116
sg83
g5097
sg76
(lp5117
g69
(g90
g71
NtRp5118
(dp5119
g74
(dp5120
sg83
g5114
sg76
(lp5121
g69
(g70
g71
NtRp5122
(dp5123
g74
(dp5124
g82
I1
ssg83
g5118
sg76
(lp5125
I00
asbasbasbag69
(g85
g71
NtRp5126
(dp5127
g74
(dp5128
sg83
g5097
sg76
(lp5129
g69
(g90
g71
NtRp5130
(dp5131
g74
(dp5132
sg83
g5126
sg76
(lp5133
g69
(g70
g71
NtRp5134
(dp5135
g74
(dp5136
g82
I1
ssg83
g5130
sg76
(lp5137
Nasbasbasbag69
(g85
g71
NtRp5138
(dp5139
g74
(dp5140
sg83
g5097
sg76
(lp5141
g69
(g90
g71
NtRp5142
(dp5143
g74
(dp5144
sg83
g5138
sg76
(lp5145
g69
(g70
g71
NtRp5146
(dp5147
g74
(dp5148
g82
I1
ssg83
g5142
sg76
(lp5149
(lp5150
(S'plugin_wiki'
p5151
I00
S'http://web2py.com/examples/default/download'
p5152
tp5153
a(g4538
(S's\r\x00\x00\x00Other Plugins'
tRp5154
I00
g4884
tp5155
a(g4538
(S's\x0e\x00\x00\x00Layout Plugins'
tRp5156
I00
g4887
tp5157
aasbasbasbasbasbasbasbasbasbasbasbasbasbasbasbasbasbasbasbag69
(g85
g71
NtRp5158
(dp5159
g74
(dp5160
sg83
g3982
sg76
(lp5161
g69
(g90
g71
NtRp5162
(dp5163
g74
(dp5164
g94
g95
ssg83
g5158
sg76
(lp5165
S'meta'
p5166
asbag69
(g90
g71
NtRp5167
(dp5168
g74
(dp5169
g101
g102
ssg83
g5158
sg76
(lp5170
S':'
asbag69
(g90
g71
NtRp5171
(dp5172
g74
(dp5173
sg83
g5158
sg76
(lp5174
g69
(g70
g71
NtRp5175
(dp5176
g74
(dp5177
g82
I5
ssg83
g5171
sg76
(lp5178
g69
(g78
g71
NtRp5179
(dp5180
g74
(dp5181
g82
I4
ssg83
Nsg76
(lp5182
g69
(g85
g71
NtRp5183
(dp5184
g74
(dp5185
sg83
g5179
sg76
(lp5186
g69
(g90
g71
NtRp5187
(dp5188
g74
(dp5189
g94
g95
ssg83
g5183
sg76
(lp5190
S'author'
p5191
asbag69
(g90
g71
NtRp5192
(dp5193
g74
(dp5194
g101
g102
ssg83
g5183
sg76
(lp5195
S':'
asbag69
(g90
g71
NtRp5196
(dp5197
g74
(dp5198
sg83
g5183
sg76
(lp5199
g69
(g70
g71
NtRp5200
(dp5201
g74
(dp5202
g82
I4
ssg83
g5196
sg76
(lp5203
S'Your Name <you@example.com>'
p5204
asbasbasbag69
(g85
g71
NtRp5205
(dp5206
g74
(dp5207
sg83
g5179
sg76
(lp5208
g69
(g90
g71
NtRp5209
(dp5210
g74
(dp5211
g94
g95
ssg83
g5205
sg76
(lp5212
S'copyright'
p5213
asbag69
(g90
g71
NtRp5214
(dp5215
g74
(dp5216
g101
g102
ssg83
g5205
sg76
(lp5217
S':'
asbag69
(g90
g71
NtRp5218
(dp5219
g74
(dp5220
sg83
g5205
sg76
(lp5221
g69
(g70
g71
NtRp5222
(dp5223
g74
(dp5224
g82
I4
ssg83
g5218
sg76
(lp5225
S'Copyright 2011'
p5226
asbasbasbag69
(g85
g71
NtRp5227
(dp5228
g74
(dp5229
sg83
g5179
sg76
(lp5230
g69
(g90
g71
NtRp5231
(dp5232
g74
(dp5233
g94
g95
ssg83
g5227
sg76
(lp5234
S'description'
p5235
asbag69
(g90
g71
NtRp5236
(dp5237
g74
(dp5238
g101
g102
ssg83
g5227
sg76
(lp5239
S':'
asbag69
(g90
g71
NtRp5240
(dp5241
g74
(dp5242
sg83
g5227
sg76
(lp5243
g69
(g70
g71
NtRp5244
(dp5245
g74
(dp5246
g82
I4
ssg83
g5240
sg76
(lp5247
S'a cool new app'
p5248
asbasbasbag69
(g85
g71
NtRp5249
(dp5250
g74
(dp5251
sg83
g5179
sg76
(lp5252
g69
(g90
g71
NtRp5253
(dp5254
g74
(dp5255
g94
g95
ssg83
g5249
sg76
(lp5256
S'generator'
p5257
asbag69
(g90
g71
NtRp5258
(dp5259
g74
(dp5260
g101
g102
ssg83
g5249
sg76
(lp5261
S':'
asbag69
(g90
g71
NtRp5262
(dp5263
g74
(dp5264
sg83
g5249
sg76
(lp5265
g69
(g70
g71
NtRp5266
(dp5267
g74
(dp5268
g82
I4
ssg83
g5262
sg76
(lp5269
S'Web2py Web Framework'
p5270
asbasbasbag69
(g85
g71
NtRp5271
(dp5272
g74
(dp5273
sg83
g5179
sg76
(lp5274
g69
(g90
g71
NtRp5275
(dp5276
g74
(dp5277
g94
g95
ssg83
g5271
sg76
(lp5278
S'keywords'
p5279
asbag69
(g90
g71
NtRp5280
(dp5281
g74
(dp5282
g101
g102
ssg83
g5271
sg76
(lp5283
S':'
asbag69
(g90
g71
NtRp5284
(dp5285
g74
(dp5286
sg83
g5271
sg76
(lp5287
g69
(g70
g71
NtRp5288
(dp5289
g74
(dp5290
g82
I4
ssg83
g5284
sg76
(lp5291
S'web2py, python, framework'
p5292
asbasbasbasbasbasbasbag69
(g85
g71
NtRp5293
(dp5294
g74
(dp5295
sg83
g3982
sg76
(lp5296
g69
(g90
g71
NtRp5297
(dp5298
g74
(dp5299
g94
g95
ssg83
g5293
sg76
(lp5300
S'postprocessing'
p5301
asbag69
(g90
g71
NtRp5302
(dp5303
g74
(dp5304
g101
g102
ssg83
g5293
sg76
(lp5305
S':'
asbag69
(g90
g71
NtRp5306
(dp5307
g74
(dp5308
sg83
g5293
sg76
(lp5309
g69
(g70
g71
NtRp5310
(dp5311
g74
(dp5312
g82
I5
ssg83
g5306
sg76
(lp5313
g69
(g78
g71
NtRp5314
(dp5315
g74
(dp5316
g82
I4
ssg83
Nsg76
(lp5317
sbasbasbasbag69
(g85
g71
NtRp5318
(dp5319
g74
(dp5320
sg83
g3982
sg76
(lp5321
g69
(g90
g71
NtRp5322
(dp5323
g74
(dp5324
g94
g95
ssg83
g5318
sg76
(lp5325
S'session_file'
p5326
asbag69
(g90
g71
NtRp5327
(dp5328
g74
(dp5329
g101
g102
ssg83
g5318
sg76
(lp5330
S':'
asbag69
(g90
g71
NtRp5331
(dp5332
g74
(dp5333
sg83
g5318
sg76
(lp5334
g69
(g70
g71
NtRp5335
(dp5336
g74
(dp5337
g82
I5
ssg83
g5331
sg76
(lp5338
S"<open file '/Users/emir/Documents/beardcode/web2py/applications/contador/sessions/127.0.0.1-2b69a554-5d73-450d-a1a3-2f7111772fbb', mode 'rb+' at 0x1109d6660>"
p5339
asbasbasbag69
(g85
g71
NtRp5340
(dp5341
g74
(dp5342
sg83
g3982
sg76
(lp5343
g69
(g90
g71
NtRp5344
(dp5345
g74
(dp5346
g94
g95
ssg83
g5340
sg76
(lp5347
S'session_filename'
p5348
asbag69
(g90
g71
NtRp5349
(dp5350
g74
(dp5351
g101
g102
ssg83
g5340
sg76
(lp5352
S':'
asbag69
(g90
g71
NtRp5353
(dp5354
g74
(dp5355
sg83
g5340
sg76
(lp5356
g69
(g70
g71
NtRp5357
(dp5358
g74
(dp5359
g82
I5
ssg83
g5353
sg76
(lp5360
S'/Users/emir/Documents/beardcode/web2py/applications/contador/sessions/127.0.0.1-2b69a554-5d73-450d-a1a3-2f7111772fbb'
p5361
asbasbasbag69
(g85
g71
NtRp5362
(dp5363
g74
(dp5364
sg83
g3982
sg76
(lp5365
g69
(g90
g71
NtRp5366
(dp5367
g74
(dp5368
g94
g95
ssg83
g5362
sg76
(lp5369
S'session_id'
p5370
asbag69
(g90
g71
NtRp5371
(dp5372
g74
(dp5373
g101
g102
ssg83
g5362
sg76
(lp5374
S':'
asbag69
(g90
g71
NtRp5375
(dp5376
g74
(dp5377
sg83
g5362
sg76
(lp5378
g69
(g70
g71
NtRp5379
(dp5380
g74
(dp5381
g82
I5
ssg83
g5375
sg76
(lp5382
S'127.0.0.1-2b69a554-5d73-450d-a1a3-2f7111772fbb'
p5383
asbasbasbag69
(g85
g71
NtRp5384
(dp5385
g74
(dp5386
sg83
g3982
sg76
(lp5387
g69
(g90
g71
NtRp5388
(dp5389
g74
(dp5390
g94
g95
ssg83
g5384
sg76
(lp5391
S'session_id_name'
p5392
asbag69
(g90
g71
NtRp5393
(dp5394
g74
(dp5395
g101
g102
ssg83
g5384
sg76
(lp5396
S':'
asbag69
(g90
g71
NtRp5397
(dp5398
g74
(dp5399
sg83
g5384
sg76
(lp5400
g69
(g70
g71
NtRp5401
(dp5402
g74
(dp5403
g82
I5
ssg83
g5397
sg76
(lp5404
g4039
asbasbasbag69
(g85
g71
NtRp5405
(dp5406
g74
(dp5407
sg83
g3982
sg76
(lp5408
g69
(g90
g71
NtRp5409
(dp5410
g74
(dp5411
g94
g95
ssg83
g5405
sg76
(lp5412
S'session_locked'
p5413
asbag69
(g90
g71
NtRp5414
(dp5415
g74
(dp5416
g101
g102
ssg83
g5405
sg76
(lp5417
S':'
asbag69
(g90
g71
NtRp5418
(dp5419
g74
(dp5420
sg83
g5405
sg76
(lp5421
g69
(g70
g71
NtRp5422
(dp5423
g74
(dp5424
g82
I5
ssg83
g5418
sg76
(lp5425
g2201
asbasbasbag69
(g85
g71
NtRp5426
(dp5427
g74
(dp5428
sg83
g3982
sg76
(lp5429
g69
(g90
g71
NtRp5430
(dp5431
g74
(dp5432
g94
g95
ssg83
g5426
sg76
(lp5433
S'session_new'
p5434
asbag69
(g90
g71
NtRp5435
(dp5436
g74
(dp5437
g101
g102
ssg83
g5426
sg76
(lp5438
S':'
asbag69
(g90
g71
NtRp5439
(dp5440
g74
(dp5441
sg83
g5426
sg76
(lp5442
g69
(g70
g71
NtRp5443
(dp5444
g74
(dp5445
g82
I5
ssg83
g5439
sg76
(lp5446
g112
asbasbasbag69
(g85
g71
NtRp5447
(dp5448
g74
(dp5449
sg83
g3982
sg76
(lp5450
g69
(g90
g71
NtRp5451
(dp5452
g74
(dp5453
g94
g95
ssg83
g5447
sg76
(lp5454
S'status'
p5455
asbag69
(g90
g71
NtRp5456
(dp5457
g74
(dp5458
g101
g102
ssg83
g5447
sg76
(lp5459
S':'
asbag69
(g90
g71
NtRp5460
(dp5461
g74
(dp5462
sg83
g5447
sg76
(lp5463
g69
(g70
g71
NtRp5464
(dp5465
g74
(dp5466
g82
I5
ssg83
g5460
sg76
(lp5467
S'200'
p5468
asbasbasbag69
(g85
g71
NtRp5469
(dp5470
g74
(dp5471
sg83
g3982
sg76
(lp5472
g69
(g90
g71
NtRp5473
(dp5474
g74
(dp5475
g94
g95
ssg83
g5469
sg76
(lp5476
S'subtitle'
p5477
asbag69
(g90
g71
NtRp5478
(dp5479
g74
(dp5480
g101
g102
ssg83
g5469
sg76
(lp5481
S':'
asbag69
(g90
g71
NtRp5482
(dp5483
g74
(dp5484
sg83
g5469
sg76
(lp5485
g69
(g70
g71
NtRp5486
(dp5487
g74
(dp5488
g82
I5
ssg83
g5482
sg76
(lp5489
g4538
(S's\t\x00\x00\x00Adaptame!'
tRp5490
asbasbasbag69
(g85
g71
NtRp5491
(dp5492
g74
(dp5493
sg83
g3982
sg76
(lp5494
g69
(g90
g71
NtRp5495
(dp5496
g74
(dp5497
g94
g95
ssg83
g5491
sg76
(lp5498
S'title'
p5499
asbag69
(g90
g71
NtRp5500
(dp5501
g74
(dp5502
g101
g102
ssg83
g5491
sg76
(lp5503
S':'
asbag69
(g90
g71
NtRp5504
(dp5505
g74
(dp5506
sg83
g5491
sg76
(lp5507
g69
(g70
g71
NtRp5508
(dp5509
g74
(dp5510
g82
I5
ssg83
g5504
sg76
(lp5511
S'Contador'
p5512
asbasbasbag69
(g85
g71
NtRp5513
(dp5514
g74
(dp5515
sg83
g3982
sg76
(lp5516
g69
(g90
g71
NtRp5517
(dp5518
g74
(dp5519
g94
g95
ssg83
g5513
sg76
(lp5520
g2821
asbag69
(g90
g71
NtRp5521
(dp5522
g74
(dp5523
g101
g102
ssg83
g5513
sg76
(lp5524
S':'
asbag69
(g90
g71
NtRp5525
(dp5526
g74
(dp5527
sg83
g5513
sg76
(lp5528
g69
(g70
g71
NtRp5529
(dp5530
g74
(dp5531
g82
I5
ssg83
g5525
sg76
(lp5532
g2834
asbasbasbag69
(g85
g71
NtRp5533
(dp5534
g74
(dp5535
sg83
g3982
sg76
(lp5536
g69
(g90
g71
NtRp5537
(dp5538
g74
(dp5539
g94
g95
ssg83
g5533
sg76
(lp5540
S'view'
p5541
asbag69
(g90
g71
NtRp5542
(dp5543
g74
(dp5544
g101
g102
ssg83
g5533
sg76
(lp5545
S':'
asbag69
(g90
g71
NtRp5546
(dp5547
g74
(dp5548
sg83
g5533
sg76
(lp5549
g69
(g70
g71
NtRp5550
(dp5551
g74
(dp5552
g82
I5
ssg83
g5546
sg76
(lp5553
S'default/index.html'
p5554
asbasbasbasbasbsS'locals'
p5555
(dp5556
g4
S"'/Users/emir/Documents/beardcode/web2py/applications/contador/controllers/default.py'"
p5557
sg6
S"'# -*- coding: utf-8 -*-\\n# this file is released ...nter,ti)\\n\\nresponse._vars=response._caller(index)\\n'"
p5558
sssS'traceback'
p5559
S'Traceback (most recent call last):\n  File "/Users/emir/Documents/beardcode/web2py/gluon/restricted.py", line 204, in restricted\n    ccode = compile2(code,layer)\n  File "/Users/emir/Documents/beardcode/web2py/gluon/restricted.py", line 189, in compile2\n    return compile(code.rstrip().replace(\'\\r\\n\',\'\\n\')+\'\\n\', layer, \'exec\')\n  File "/Users/emir/Documents/beardcode/web2py/applications/contador/controllers/default.py", line 19\n    return dict(nv=session.counter,ti)\nSyntaxError: non-keyword arg after keyword arg\n'
p5560
s.