(dp1
S'output'
p2
S"<type 'exceptions.NameError'> name 'nv' is not defined"
p3
sS'layer'
p4
S'/Users/emir/Documents/beardcode/web2py/applications/contador/views/default/index.html'
p5
sS'code'
p6
S'response.write(\'<html>\\n<head>\\n  <title>Contador</title>\\n  <style type="text/css">\\n\\n  </style>\\n</head>\\n<body>\\n  <header>\\n    <h1>Contador de visitas</h1>\\n  </header>\\n  <section>\\n    Numero de visitas: \', escape=False)\nresponse.write(nv)\nresponse.write(\'\\n  </section>\\n  <footer>beardcode</footer>\\n</body>\\n</html>\', escape=False)'
p7
sS'snapshot'
p8
(dp9
S'exception'
p10
(dp11
S'__hash__'
p12
S"<method-wrapper '__hash__' of exceptions.NameError object>"
p13
sS'__setattr__'
p14
S"<method-wrapper '__setattr__' of exceptions.NameError object>"
p15
sS'__reduce_ex__'
p16
S'<built-in method __reduce_ex__ of exceptions.NameError object>'
p17
sS'__getslice__'
p18
S"<method-wrapper '__getslice__' of exceptions.NameError object>"
p19
sS'__getitem__'
p20
S"<method-wrapper '__getitem__' of exceptions.NameError object>"
p21
sS'__setstate__'
p22
S'<built-in method __setstate__ of exceptions.NameError object>'
p23
sS'args'
p24
S'("name \'nv\' is not defined",)'
p25
sS'__reduce__'
p26
S'<built-in method __reduce__ of exceptions.NameError object>'
p27
sS'__str__'
p28
S"<method-wrapper '__str__' of exceptions.NameError object>"
p29
sS'__format__'
p30
S'<built-in method __format__ of exceptions.NameError object>'
p31
sS'__getattribute__'
p32
S"<method-wrapper '__getattribute__' of exceptions.NameError object>"
p33
sS'__class__'
p34
S"<type 'exceptions.NameError'>"
p35
sS'__unicode__'
p36
S'<built-in method __unicode__ of exceptions.NameError object>'
p37
sS'__delattr__'
p38
S"<method-wrapper '__delattr__' of exceptions.NameError object>"
p39
sS'__subclasshook__'
p40
S'<built-in method __subclasshook__ of type object>'
p41
sS'__repr__'
p42
S"<method-wrapper '__repr__' of exceptions.NameError object>"
p43
sS'__dict__'
p44
S'{}'
p45
sS'__sizeof__'
p46
S'<built-in method __sizeof__ of exceptions.NameError object>'
p47
sS'__doc__'
p48
S"'Name not found globally.'"
p49
sS'__init__'
p50
S"<method-wrapper '__init__' of exceptions.NameError object>"
p51
sS'__new__'
p52
S'<built-in method __new__ of type object>'
p53
ssS'evalue'
p54
S"name 'nv' is not defined"
p55
sS'request'
p56
ccopy_reg
_reconstructor
p57
(cgluon.html
BEAUTIFY
p58
c__builtin__
object
p59
NtRp60
(dp61
S'attributes'
p62
(dp63
sS'components'
p64
(lp65
g57
(cgluon.html
TABLE
p66
g59
NtRp67
(dp68
g62
(dp69
S'level'
p70
I5
ssS'parent'
p71
Nsg64
(lp72
g57
(cgluon.html
TR
p73
g59
NtRp74
(dp75
g62
(dp76
sg71
g67
sg64
(lp77
g57
(cgluon.html
TD
p78
g59
NtRp79
(dp80
g62
(dp81
S'_style'
p82
S'font-weight:bold;vertical-align:top'
p83
ssg71
g74
sg64
(lp84
S'ajax'
p85
asbag57
(g78
g59
NtRp86
(dp87
g62
(dp88
S'_valign'
p89
S'top'
p90
ssg71
g74
sg64
(lp91
S':'
asbag57
(g78
g59
NtRp92
(dp93
g62
(dp94
sg71
g74
sg64
(lp95
g57
(g58
g59
NtRp96
(dp97
g62
(dp98
g70
I5
ssg71
g92
sg64
(lp99
S'False'
p100
asbasbasbag57
(g73
g59
NtRp101
(dp102
g62
(dp103
sg71
g67
sg64
(lp104
g57
(g78
g59
NtRp105
(dp106
g62
(dp107
g82
g83
ssg71
g101
sg64
(lp108
S'application'
p109
asbag57
(g78
g59
NtRp110
(dp111
g62
(dp112
g89
g90
ssg71
g101
sg64
(lp113
S':'
asbag57
(g78
g59
NtRp114
(dp115
g62
(dp116
sg71
g101
sg64
(lp117
g57
(g58
g59
NtRp118
(dp119
g62
(dp120
g70
I5
ssg71
g114
sg64
(lp121
S'contador'
p122
asbasbasbag57
(g73
g59
NtRp123
(dp124
g62
(dp125
sg71
g67
sg64
(lp126
g57
(g78
g59
NtRp127
(dp128
g62
(dp129
g82
g83
ssg71
g123
sg64
(lp130
g24
asbag57
(g78
g59
NtRp131
(dp132
g62
(dp133
g89
g90
ssg71
g123
sg64
(lp134
S':'
asbag57
(g78
g59
NtRp135
(dp136
g62
(dp137
sg71
g123
sg64
(lp138
g57
(g58
g59
NtRp139
(dp140
g62
(dp141
g70
I5
ssg71
g135
sg64
(lp142
g57
(g66
g59
NtRp143
(dp144
g62
(dp145
g70
I4
ssg71
Nsg64
(lp146
sbasbasbasbag57
(g73
g59
NtRp147
(dp148
g62
(dp149
sg71
g67
sg64
(lp150
g57
(g78
g59
NtRp151
(dp152
g62
(dp153
g82
g83
ssg71
g147
sg64
(lp154
S'body'
p155
asbag57
(g78
g59
NtRp156
(dp157
g62
(dp158
g89
g90
ssg71
g147
sg64
(lp159
S':'
asbag57
(g78
g59
NtRp160
(dp161
g62
(dp162
sg71
g147
sg64
(lp163
g57
(g58
g59
NtRp164
(dp165
g62
(dp166
g70
I5
ssg71
g160
sg64
(lp167
S'<cStringIO.StringO object at 0x110643f10>'
p168
asbasbasbag57
(g73
g59
NtRp169
(dp170
g62
(dp171
sg71
g67
sg64
(lp172
g57
(g78
g59
NtRp173
(dp174
g62
(dp175
g82
g83
ssg71
g169
sg64
(lp176
S'client'
p177
asbag57
(g78
g59
NtRp178
(dp179
g62
(dp180
g89
g90
ssg71
g169
sg64
(lp181
S':'
asbag57
(g78
g59
NtRp182
(dp183
g62
(dp184
sg71
g169
sg64
(lp185
g57
(g58
g59
NtRp186
(dp187
g62
(dp188
g70
I5
ssg71
g182
sg64
(lp189
S'127.0.0.1'
p190
asbasbasbag57
(g73
g59
NtRp191
(dp192
g62
(dp193
sg71
g67
sg64
(lp194
g57
(g78
g59
NtRp195
(dp196
g62
(dp197
g82
g83
ssg71
g191
sg64
(lp198
S'controller'
p199
asbag57
(g78
g59
NtRp200
(dp201
g62
(dp202
g89
g90
ssg71
g191
sg64
(lp203
S':'
asbag57
(g78
g59
NtRp204
(dp205
g62
(dp206
sg71
g191
sg64
(lp207
g57
(g58
g59
NtRp208
(dp209
g62
(dp210
g70
I5
ssg71
g204
sg64
(lp211
S'default'
p212
asbasbasbag57
(g73
g59
NtRp213
(dp214
g62
(dp215
sg71
g67
sg64
(lp216
g57
(g78
g59
NtRp217
(dp218
g62
(dp219
g82
g83
ssg71
g213
sg64
(lp220
S'cookies'
p221
asbag57
(g78
g59
NtRp222
(dp223
g62
(dp224
g89
g90
ssg71
g213
sg64
(lp225
S':'
asbag57
(g78
g59
NtRp226
(dp227
g62
(dp228
sg71
g213
sg64
(lp229
g57
(g58
g59
NtRp230
(dp231
g62
(dp232
g70
I5
ssg71
g226
sg64
(lp233
g57
(g66
g59
NtRp234
(dp235
g62
(dp236
g70
I4
ssg71
Nsg64
(lp237
g57
(g73
g59
NtRp238
(dp239
g62
(dp240
sg71
g234
sg64
(lp241
g57
(g78
g59
NtRp242
(dp243
g62
(dp244
g82
g83
ssg71
g238
sg64
(lp245
S'session_id_admin'
p246
asbag57
(g78
g59
NtRp247
(dp248
g62
(dp249
g89
g90
ssg71
g238
sg64
(lp250
S':'
asbag57
(g78
g59
NtRp251
(dp252
g62
(dp253
sg71
g238
sg64
(lp254
g57
(g58
g59
NtRp255
(dp256
g62
(dp257
g70
I4
ssg71
g251
sg64
(lp258
g57
(g66
g59
NtRp259
(dp260
g62
(dp261
g70
I3
ssg71
Nsg64
(lp262
g57
(g73
g59
NtRp263
(dp264
g62
(dp265
sg71
g259
sg64
(lp266
g57
(g78
g59
NtRp267
(dp268
g62
(dp269
g82
g83
ssg71
g263
sg64
(lp270
S'comment'
p271
asbag57
(g78
g59
NtRp272
(dp273
g62
(dp274
g89
g90
ssg71
g263
sg64
(lp275
S':'
asbag57
(g78
g59
NtRp276
(dp277
g62
(dp278
sg71
g263
sg64
(lp279
g57
(g58
g59
NtRp280
(dp281
g62
(dp282
g70
I3
ssg71
g276
sg64
(lp283
S''
asbasbasbag57
(g73
g59
NtRp284
(dp285
g62
(dp286
sg71
g259
sg64
(lp287
g57
(g78
g59
NtRp288
(dp289
g62
(dp290
g82
g83
ssg71
g284
sg64
(lp291
S'domain'
p292
asbag57
(g78
g59
NtRp293
(dp294
g62
(dp295
g89
g90
ssg71
g284
sg64
(lp296
S':'
asbag57
(g78
g59
NtRp297
(dp298
g62
(dp299
sg71
g284
sg64
(lp300
g57
(g58
g59
NtRp301
(dp302
g62
(dp303
g70
I3
ssg71
g297
sg64
(lp304
S''
asbasbasbag57
(g73
g59
NtRp305
(dp306
g62
(dp307
sg71
g259
sg64
(lp308
g57
(g78
g59
NtRp309
(dp310
g62
(dp311
g82
g83
ssg71
g305
sg64
(lp312
S'expires'
p313
asbag57
(g78
g59
NtRp314
(dp315
g62
(dp316
g89
g90
ssg71
g305
sg64
(lp317
S':'
asbag57
(g78
g59
NtRp318
(dp319
g62
(dp320
sg71
g305
sg64
(lp321
g57
(g58
g59
NtRp322
(dp323
g62
(dp324
g70
I3
ssg71
g318
sg64
(lp325
S''
asbasbasbag57
(g73
g59
NtRp326
(dp327
g62
(dp328
sg71
g259
sg64
(lp329
g57
(g78
g59
NtRp330
(dp331
g62
(dp332
g82
g83
ssg71
g326
sg64
(lp333
S'httponly'
p334
asbag57
(g78
g59
NtRp335
(dp336
g62
(dp337
g89
g90
ssg71
g326
sg64
(lp338
S':'
asbag57
(g78
g59
NtRp339
(dp340
g62
(dp341
sg71
g326
sg64
(lp342
g57
(g58
g59
NtRp343
(dp344
g62
(dp345
g70
I3
ssg71
g339
sg64
(lp346
S''
asbasbasbag57
(g73
g59
NtRp347
(dp348
g62
(dp349
sg71
g259
sg64
(lp350
g57
(g78
g59
NtRp351
(dp352
g62
(dp353
g82
g83
ssg71
g347
sg64
(lp354
S'max-age'
p355
asbag57
(g78
g59
NtRp356
(dp357
g62
(dp358
g89
g90
ssg71
g347
sg64
(lp359
S':'
asbag57
(g78
g59
NtRp360
(dp361
g62
(dp362
sg71
g347
sg64
(lp363
g57
(g58
g59
NtRp364
(dp365
g62
(dp366
g70
I3
ssg71
g360
sg64
(lp367
S''
asbasbasbag57
(g73
g59
NtRp368
(dp369
g62
(dp370
sg71
g259
sg64
(lp371
g57
(g78
g59
NtRp372
(dp373
g62
(dp374
g82
g83
ssg71
g368
sg64
(lp375
S'path'
p376
asbag57
(g78
g59
NtRp377
(dp378
g62
(dp379
g89
g90
ssg71
g368
sg64
(lp380
S':'
asbag57
(g78
g59
NtRp381
(dp382
g62
(dp383
sg71
g368
sg64
(lp384
g57
(g58
g59
NtRp385
(dp386
g62
(dp387
g70
I3
ssg71
g381
sg64
(lp388
S''
asbasbasbag57
(g73
g59
NtRp389
(dp390
g62
(dp391
sg71
g259
sg64
(lp392
g57
(g78
g59
NtRp393
(dp394
g62
(dp395
g82
g83
ssg71
g389
sg64
(lp396
S'secure'
p397
asbag57
(g78
g59
NtRp398
(dp399
g62
(dp400
g89
g90
ssg71
g389
sg64
(lp401
S':'
asbag57
(g78
g59
NtRp402
(dp403
g62
(dp404
sg71
g389
sg64
(lp405
g57
(g58
g59
NtRp406
(dp407
g62
(dp408
g70
I3
ssg71
g402
sg64
(lp409
S''
asbasbasbag57
(g73
g59
NtRp410
(dp411
g62
(dp412
sg71
g259
sg64
(lp413
g57
(g78
g59
NtRp414
(dp415
g62
(dp416
g82
g83
ssg71
g410
sg64
(lp417
S'version'
p418
asbag57
(g78
g59
NtRp419
(dp420
g62
(dp421
g89
g90
ssg71
g410
sg64
(lp422
S':'
asbag57
(g78
g59
NtRp423
(dp424
g62
(dp425
sg71
g410
sg64
(lp426
g57
(g58
g59
NtRp427
(dp428
g62
(dp429
g70
I3
ssg71
g423
sg64
(lp430
S''
asbasbasbasbasbasbasbag57
(g73
g59
NtRp431
(dp432
g62
(dp433
sg71
g234
sg64
(lp434
g57
(g78
g59
NtRp435
(dp436
g62
(dp437
g82
g83
ssg71
g431
sg64
(lp438
S'session_id_contador'
p439
asbag57
(g78
g59
NtRp440
(dp441
g62
(dp442
g89
g90
ssg71
g431
sg64
(lp443
S':'
asbag57
(g78
g59
NtRp444
(dp445
g62
(dp446
sg71
g431
sg64
(lp447
g57
(g58
g59
NtRp448
(dp449
g62
(dp450
g70
I4
ssg71
g444
sg64
(lp451
g57
(g66
g59
NtRp452
(dp453
g62
(dp454
g70
I3
ssg71
Nsg64
(lp455
g57
(g73
g59
NtRp456
(dp457
g62
(dp458
sg71
g452
sg64
(lp459
g57
(g78
g59
NtRp460
(dp461
g62
(dp462
g82
g83
ssg71
g456
sg64
(lp463
g271
asbag57
(g78
g59
NtRp464
(dp465
g62
(dp466
g89
g90
ssg71
g456
sg64
(lp467
S':'
asbag57
(g78
g59
NtRp468
(dp469
g62
(dp470
sg71
g456
sg64
(lp471
g57
(g58
g59
NtRp472
(dp473
g62
(dp474
g70
I3
ssg71
g468
sg64
(lp475
S''
asbasbasbag57
(g73
g59
NtRp476
(dp477
g62
(dp478
sg71
g452
sg64
(lp479
g57
(g78
g59
NtRp480
(dp481
g62
(dp482
g82
g83
ssg71
g476
sg64
(lp483
g292
asbag57
(g78
g59
NtRp484
(dp485
g62
(dp486
g89
g90
ssg71
g476
sg64
(lp487
S':'
asbag57
(g78
g59
NtRp488
(dp489
g62
(dp490
sg71
g476
sg64
(lp491
g57
(g58
g59
NtRp492
(dp493
g62
(dp494
g70
I3
ssg71
g488
sg64
(lp495
S''
asbasbasbag57
(g73
g59
NtRp496
(dp497
g62
(dp498
sg71
g452
sg64
(lp499
g57
(g78
g59
NtRp500
(dp501
g62
(dp502
g82
g83
ssg71
g496
sg64
(lp503
g313
asbag57
(g78
g59
NtRp504
(dp505
g62
(dp506
g89
g90
ssg71
g496
sg64
(lp507
S':'
asbag57
(g78
g59
NtRp508
(dp509
g62
(dp510
sg71
g496
sg64
(lp511
g57
(g58
g59
NtRp512
(dp513
g62
(dp514
g70
I3
ssg71
g508
sg64
(lp515
S''
asbasbasbag57
(g73
g59
NtRp516
(dp517
g62
(dp518
sg71
g452
sg64
(lp519
g57
(g78
g59
NtRp520
(dp521
g62
(dp522
g82
g83
ssg71
g516
sg64
(lp523
g334
asbag57
(g78
g59
NtRp524
(dp525
g62
(dp526
g89
g90
ssg71
g516
sg64
(lp527
S':'
asbag57
(g78
g59
NtRp528
(dp529
g62
(dp530
sg71
g516
sg64
(lp531
g57
(g58
g59
NtRp532
(dp533
g62
(dp534
g70
I3
ssg71
g528
sg64
(lp535
S''
asbasbasbag57
(g73
g59
NtRp536
(dp537
g62
(dp538
sg71
g452
sg64
(lp539
g57
(g78
g59
NtRp540
(dp541
g62
(dp542
g82
g83
ssg71
g536
sg64
(lp543
g355
asbag57
(g78
g59
NtRp544
(dp545
g62
(dp546
g89
g90
ssg71
g536
sg64
(lp547
S':'
asbag57
(g78
g59
NtRp548
(dp549
g62
(dp550
sg71
g536
sg64
(lp551
g57
(g58
g59
NtRp552
(dp553
g62
(dp554
g70
I3
ssg71
g548
sg64
(lp555
S''
asbasbasbag57
(g73
g59
NtRp556
(dp557
g62
(dp558
sg71
g452
sg64
(lp559
g57
(g78
g59
NtRp560
(dp561
g62
(dp562
g82
g83
ssg71
g556
sg64
(lp563
g376
asbag57
(g78
g59
NtRp564
(dp565
g62
(dp566
g89
g90
ssg71
g556
sg64
(lp567
S':'
asbag57
(g78
g59
NtRp568
(dp569
g62
(dp570
sg71
g556
sg64
(lp571
g57
(g58
g59
NtRp572
(dp573
g62
(dp574
g70
I3
ssg71
g568
sg64
(lp575
S''
asbasbasbag57
(g73
g59
NtRp576
(dp577
g62
(dp578
sg71
g452
sg64
(lp579
g57
(g78
g59
NtRp580
(dp581
g62
(dp582
g82
g83
ssg71
g576
sg64
(lp583
g397
asbag57
(g78
g59
NtRp584
(dp585
g62
(dp586
g89
g90
ssg71
g576
sg64
(lp587
S':'
asbag57
(g78
g59
NtRp588
(dp589
g62
(dp590
sg71
g576
sg64
(lp591
g57
(g58
g59
NtRp592
(dp593
g62
(dp594
g70
I3
ssg71
g588
sg64
(lp595
S''
asbasbasbag57
(g73
g59
NtRp596
(dp597
g62
(dp598
sg71
g452
sg64
(lp599
g57
(g78
g59
NtRp600
(dp601
g62
(dp602
g82
g83
ssg71
g596
sg64
(lp603
g418
asbag57
(g78
g59
NtRp604
(dp605
g62
(dp606
g89
g90
ssg71
g596
sg64
(lp607
S':'
asbag57
(g78
g59
NtRp608
(dp609
g62
(dp610
sg71
g596
sg64
(lp611
g57
(g58
g59
NtRp612
(dp613
g62
(dp614
g70
I3
ssg71
g608
sg64
(lp615
S''
asbasbasbasbasbasbasbag57
(g73
g59
NtRp616
(dp617
g62
(dp618
sg71
g234
sg64
(lp619
g57
(g78
g59
NtRp620
(dp621
g62
(dp622
g82
g83
ssg71
g616
sg64
(lp623
S'session_id_randomwords'
p624
asbag57
(g78
g59
NtRp625
(dp626
g62
(dp627
g89
g90
ssg71
g616
sg64
(lp628
S':'
asbag57
(g78
g59
NtRp629
(dp630
g62
(dp631
sg71
g616
sg64
(lp632
g57
(g58
g59
NtRp633
(dp634
g62
(dp635
g70
I4
ssg71
g629
sg64
(lp636
g57
(g66
g59
NtRp637
(dp638
g62
(dp639
g70
I3
ssg71
Nsg64
(lp640
g57
(g73
g59
NtRp641
(dp642
g62
(dp643
sg71
g637
sg64
(lp644
g57
(g78
g59
NtRp645
(dp646
g62
(dp647
g82
g83
ssg71
g641
sg64
(lp648
g271
asbag57
(g78
g59
NtRp649
(dp650
g62
(dp651
g89
g90
ssg71
g641
sg64
(lp652
S':'
asbag57
(g78
g59
NtRp653
(dp654
g62
(dp655
sg71
g641
sg64
(lp656
g57
(g58
g59
NtRp657
(dp658
g62
(dp659
g70
I3
ssg71
g653
sg64
(lp660
S''
asbasbasbag57
(g73
g59
NtRp661
(dp662
g62
(dp663
sg71
g637
sg64
(lp664
g57
(g78
g59
NtRp665
(dp666
g62
(dp667
g82
g83
ssg71
g661
sg64
(lp668
g292
asbag57
(g78
g59
NtRp669
(dp670
g62
(dp671
g89
g90
ssg71
g661
sg64
(lp672
S':'
asbag57
(g78
g59
NtRp673
(dp674
g62
(dp675
sg71
g661
sg64
(lp676
g57
(g58
g59
NtRp677
(dp678
g62
(dp679
g70
I3
ssg71
g673
sg64
(lp680
S''
asbasbasbag57
(g73
g59
NtRp681
(dp682
g62
(dp683
sg71
g637
sg64
(lp684
g57
(g78
g59
NtRp685
(dp686
g62
(dp687
g82
g83
ssg71
g681
sg64
(lp688
g313
asbag57
(g78
g59
NtRp689
(dp690
g62
(dp691
g89
g90
ssg71
g681
sg64
(lp692
S':'
asbag57
(g78
g59
NtRp693
(dp694
g62
(dp695
sg71
g681
sg64
(lp696
g57
(g58
g59
NtRp697
(dp698
g62
(dp699
g70
I3
ssg71
g693
sg64
(lp700
S''
asbasbasbag57
(g73
g59
NtRp701
(dp702
g62
(dp703
sg71
g637
sg64
(lp704
g57
(g78
g59
NtRp705
(dp706
g62
(dp707
g82
g83
ssg71
g701
sg64
(lp708
g334
asbag57
(g78
g59
NtRp709
(dp710
g62
(dp711
g89
g90
ssg71
g701
sg64
(lp712
S':'
asbag57
(g78
g59
NtRp713
(dp714
g62
(dp715
sg71
g701
sg64
(lp716
g57
(g58
g59
NtRp717
(dp718
g62
(dp719
g70
I3
ssg71
g713
sg64
(lp720
S''
asbasbasbag57
(g73
g59
NtRp721
(dp722
g62
(dp723
sg71
g637
sg64
(lp724
g57
(g78
g59
NtRp725
(dp726
g62
(dp727
g82
g83
ssg71
g721
sg64
(lp728
g355
asbag57
(g78
g59
NtRp729
(dp730
g62
(dp731
g89
g90
ssg71
g721
sg64
(lp732
S':'
asbag57
(g78
g59
NtRp733
(dp734
g62
(dp735
sg71
g721
sg64
(lp736
g57
(g58
g59
NtRp737
(dp738
g62
(dp739
g70
I3
ssg71
g733
sg64
(lp740
S''
asbasbasbag57
(g73
g59
NtRp741
(dp742
g62
(dp743
sg71
g637
sg64
(lp744
g57
(g78
g59
NtRp745
(dp746
g62
(dp747
g82
g83
ssg71
g741
sg64
(lp748
g376
asbag57
(g78
g59
NtRp749
(dp750
g62
(dp751
g89
g90
ssg71
g741
sg64
(lp752
S':'
asbag57
(g78
g59
NtRp753
(dp754
g62
(dp755
sg71
g741
sg64
(lp756
g57
(g58
g59
NtRp757
(dp758
g62
(dp759
g70
I3
ssg71
g753
sg64
(lp760
S''
asbasbasbag57
(g73
g59
NtRp761
(dp762
g62
(dp763
sg71
g637
sg64
(lp764
g57
(g78
g59
NtRp765
(dp766
g62
(dp767
g82
g83
ssg71
g761
sg64
(lp768
g397
asbag57
(g78
g59
NtRp769
(dp770
g62
(dp771
g89
g90
ssg71
g761
sg64
(lp772
S':'
asbag57
(g78
g59
NtRp773
(dp774
g62
(dp775
sg71
g761
sg64
(lp776
g57
(g58
g59
NtRp777
(dp778
g62
(dp779
g70
I3
ssg71
g773
sg64
(lp780
S''
asbasbasbag57
(g73
g59
NtRp781
(dp782
g62
(dp783
sg71
g637
sg64
(lp784
g57
(g78
g59
NtRp785
(dp786
g62
(dp787
g82
g83
ssg71
g781
sg64
(lp788
g418
asbag57
(g78
g59
NtRp789
(dp790
g62
(dp791
g89
g90
ssg71
g781
sg64
(lp792
S':'
asbag57
(g78
g59
NtRp793
(dp794
g62
(dp795
sg71
g781
sg64
(lp796
g57
(g58
g59
NtRp797
(dp798
g62
(dp799
g70
I3
ssg71
g793
sg64
(lp800
S''
asbasbasbasbasbasbasbag57
(g73
g59
NtRp801
(dp802
g62
(dp803
sg71
g234
sg64
(lp804
g57
(g78
g59
NtRp805
(dp806
g62
(dp807
g82
g83
ssg71
g801
sg64
(lp808
S'session_id_welcome'
p809
asbag57
(g78
g59
NtRp810
(dp811
g62
(dp812
g89
g90
ssg71
g801
sg64
(lp813
S':'
asbag57
(g78
g59
NtRp814
(dp815
g62
(dp816
sg71
g801
sg64
(lp817
g57
(g58
g59
NtRp818
(dp819
g62
(dp820
g70
I4
ssg71
g814
sg64
(lp821
g57
(g66
g59
NtRp822
(dp823
g62
(dp824
g70
I3
ssg71
Nsg64
(lp825
g57
(g73
g59
NtRp826
(dp827
g62
(dp828
sg71
g822
sg64
(lp829
g57
(g78
g59
NtRp830
(dp831
g62
(dp832
g82
g83
ssg71
g826
sg64
(lp833
g271
asbag57
(g78
g59
NtRp834
(dp835
g62
(dp836
g89
g90
ssg71
g826
sg64
(lp837
S':'
asbag57
(g78
g59
NtRp838
(dp839
g62
(dp840
sg71
g826
sg64
(lp841
g57
(g58
g59
NtRp842
(dp843
g62
(dp844
g70
I3
ssg71
g838
sg64
(lp845
S''
asbasbasbag57
(g73
g59
NtRp846
(dp847
g62
(dp848
sg71
g822
sg64
(lp849
g57
(g78
g59
NtRp850
(dp851
g62
(dp852
g82
g83
ssg71
g846
sg64
(lp853
g292
asbag57
(g78
g59
NtRp854
(dp855
g62
(dp856
g89
g90
ssg71
g846
sg64
(lp857
S':'
asbag57
(g78
g59
NtRp858
(dp859
g62
(dp860
sg71
g846
sg64
(lp861
g57
(g58
g59
NtRp862
(dp863
g62
(dp864
g70
I3
ssg71
g858
sg64
(lp865
S''
asbasbasbag57
(g73
g59
NtRp866
(dp867
g62
(dp868
sg71
g822
sg64
(lp869
g57
(g78
g59
NtRp870
(dp871
g62
(dp872
g82
g83
ssg71
g866
sg64
(lp873
g313
asbag57
(g78
g59
NtRp874
(dp875
g62
(dp876
g89
g90
ssg71
g866
sg64
(lp877
S':'
asbag57
(g78
g59
NtRp878
(dp879
g62
(dp880
sg71
g866
sg64
(lp881
g57
(g58
g59
NtRp882
(dp883
g62
(dp884
g70
I3
ssg71
g878
sg64
(lp885
S''
asbasbasbag57
(g73
g59
NtRp886
(dp887
g62
(dp888
sg71
g822
sg64
(lp889
g57
(g78
g59
NtRp890
(dp891
g62
(dp892
g82
g83
ssg71
g886
sg64
(lp893
g334
asbag57
(g78
g59
NtRp894
(dp895
g62
(dp896
g89
g90
ssg71
g886
sg64
(lp897
S':'
asbag57
(g78
g59
NtRp898
(dp899
g62
(dp900
sg71
g886
sg64
(lp901
g57
(g58
g59
NtRp902
(dp903
g62
(dp904
g70
I3
ssg71
g898
sg64
(lp905
S''
asbasbasbag57
(g73
g59
NtRp906
(dp907
g62
(dp908
sg71
g822
sg64
(lp909
g57
(g78
g59
NtRp910
(dp911
g62
(dp912
g82
g83
ssg71
g906
sg64
(lp913
g355
asbag57
(g78
g59
NtRp914
(dp915
g62
(dp916
g89
g90
ssg71
g906
sg64
(lp917
S':'
asbag57
(g78
g59
NtRp918
(dp919
g62
(dp920
sg71
g906
sg64
(lp921
g57
(g58
g59
NtRp922
(dp923
g62
(dp924
g70
I3
ssg71
g918
sg64
(lp925
S''
asbasbasbag57
(g73
g59
NtRp926
(dp927
g62
(dp928
sg71
g822
sg64
(lp929
g57
(g78
g59
NtRp930
(dp931
g62
(dp932
g82
g83
ssg71
g926
sg64
(lp933
g376
asbag57
(g78
g59
NtRp934
(dp935
g62
(dp936
g89
g90
ssg71
g926
sg64
(lp937
S':'
asbag57
(g78
g59
NtRp938
(dp939
g62
(dp940
sg71
g926
sg64
(lp941
g57
(g58
g59
NtRp942
(dp943
g62
(dp944
g70
I3
ssg71
g938
sg64
(lp945
S''
asbasbasbag57
(g73
g59
NtRp946
(dp947
g62
(dp948
sg71
g822
sg64
(lp949
g57
(g78
g59
NtRp950
(dp951
g62
(dp952
g82
g83
ssg71
g946
sg64
(lp953
g397
asbag57
(g78
g59
NtRp954
(dp955
g62
(dp956
g89
g90
ssg71
g946
sg64
(lp957
S':'
asbag57
(g78
g59
NtRp958
(dp959
g62
(dp960
sg71
g946
sg64
(lp961
g57
(g58
g59
NtRp962
(dp963
g62
(dp964
g70
I3
ssg71
g958
sg64
(lp965
S''
asbasbasbag57
(g73
g59
NtRp966
(dp967
g62
(dp968
sg71
g822
sg64
(lp969
g57
(g78
g59
NtRp970
(dp971
g62
(dp972
g82
g83
ssg71
g966
sg64
(lp973
g418
asbag57
(g78
g59
NtRp974
(dp975
g62
(dp976
g89
g90
ssg71
g966
sg64
(lp977
S':'
asbag57
(g78
g59
NtRp978
(dp979
g62
(dp980
sg71
g966
sg64
(lp981
g57
(g58
g59
NtRp982
(dp983
g62
(dp984
g70
I3
ssg71
g978
sg64
(lp985
S''
asbasbasbasbasbasbasbasbasbasbasbag57
(g73
g59
NtRp986
(dp987
g62
(dp988
sg71
g67
sg64
(lp989
g57
(g78
g59
NtRp990
(dp991
g62
(dp992
g82
g83
ssg71
g986
sg64
(lp993
S'env'
p994
asbag57
(g78
g59
NtRp995
(dp996
g62
(dp997
g89
g90
ssg71
g986
sg64
(lp998
S':'
asbag57
(g78
g59
NtRp999
(dp1000
g62
(dp1001
sg71
g986
sg64
(lp1002
g57
(g58
g59
NtRp1003
(dp1004
g62
(dp1005
g70
I5
ssg71
g999
sg64
(lp1006
g57
(g66
g59
NtRp1007
(dp1008
g62
(dp1009
g70
I4
ssg71
Nsg64
(lp1010
g57
(g73
g59
NtRp1011
(dp1012
g62
(dp1013
sg71
g1007
sg64
(lp1014
g57
(g78
g59
NtRp1015
(dp1016
g62
(dp1017
g82
g83
ssg71
g1011
sg64
(lp1018
S'app_folders'
p1019
asbag57
(g78
g59
NtRp1020
(dp1021
g62
(dp1022
g89
g90
ssg71
g1011
sg64
(lp1023
S':'
asbag57
(g78
g59
NtRp1024
(dp1025
g62
(dp1026
sg71
g1011
sg64
(lp1027
g57
(g58
g59
NtRp1028
(dp1029
g62
(dp1030
g70
I4
ssg71
g1024
sg64
(lp1031
S"set(['/Users/emir/Documents/beardcode/web2py/applications/contador/'])"
p1032
asbasbasbag57
(g73
g59
NtRp1033
(dp1034
g62
(dp1035
sg71
g1007
sg64
(lp1036
g57
(g78
g59
NtRp1037
(dp1038
g62
(dp1039
g82
g83
ssg71
g1033
sg64
(lp1040
S'applications_parent'
p1041
asbag57
(g78
g59
NtRp1042
(dp1043
g62
(dp1044
g89
g90
ssg71
g1033
sg64
(lp1045
S':'
asbag57
(g78
g59
NtRp1046
(dp1047
g62
(dp1048
sg71
g1033
sg64
(lp1049
g57
(g58
g59
NtRp1050
(dp1051
g62
(dp1052
g70
I4
ssg71
g1046
sg64
(lp1053
S'/Users/emir/Documents/beardcode/web2py'
p1054
asbasbasbag57
(g73
g59
NtRp1055
(dp1056
g62
(dp1057
sg71
g1007
sg64
(lp1058
g57
(g78
g59
NtRp1059
(dp1060
g62
(dp1061
g82
g83
ssg71
g1055
sg64
(lp1062
S'db_sessions'
p1063
asbag57
(g78
g59
NtRp1064
(dp1065
g62
(dp1066
g89
g90
ssg71
g1055
sg64
(lp1067
S':'
asbag57
(g78
g59
NtRp1068
(dp1069
g62
(dp1070
sg71
g1055
sg64
(lp1071
g57
(g58
g59
NtRp1072
(dp1073
g62
(dp1074
g70
I4
ssg71
g1068
sg64
(lp1075
S'set([])'
p1076
asbasbasbag57
(g73
g59
NtRp1077
(dp1078
g62
(dp1079
sg71
g1007
sg64
(lp1080
g57
(g78
g59
NtRp1081
(dp1082
g62
(dp1083
g82
g83
ssg71
g1077
sg64
(lp1084
S'debugging'
p1085
asbag57
(g78
g59
NtRp1086
(dp1087
g62
(dp1088
g89
g90
ssg71
g1077
sg64
(lp1089
S':'
asbag57
(g78
g59
NtRp1090
(dp1091
g62
(dp1092
sg71
g1077
sg64
(lp1093
g57
(g58
g59
NtRp1094
(dp1095
g62
(dp1096
g70
I4
ssg71
g1090
sg64
(lp1097
g100
asbasbasbag57
(g73
g59
NtRp1098
(dp1099
g62
(dp1100
sg71
g1007
sg64
(lp1101
g57
(g78
g59
NtRp1102
(dp1103
g62
(dp1104
g82
g83
ssg71
g1098
sg64
(lp1105
S'document_root'
p1106
asbag57
(g78
g59
NtRp1107
(dp1108
g62
(dp1109
g89
g90
ssg71
g1098
sg64
(lp1110
S':'
asbag57
(g78
g59
NtRp1111
(dp1112
g62
(dp1113
sg71
g1098
sg64
(lp1114
g57
(g58
g59
NtRp1115
(dp1116
g62
(dp1117
g70
I4
ssg71
g1111
sg64
(lp1118
S'/Library/WebServer/Documents'
p1119
asbasbasbag57
(g73
g59
NtRp1120
(dp1121
g62
(dp1122
sg71
g1007
sg64
(lp1123
g57
(g78
g59
NtRp1124
(dp1125
g62
(dp1126
g82
g83
ssg71
g1120
sg64
(lp1127
S'gateway_interface'
p1128
asbag57
(g78
g59
NtRp1129
(dp1130
g62
(dp1131
g89
g90
ssg71
g1120
sg64
(lp1132
S':'
asbag57
(g78
g59
NtRp1133
(dp1134
g62
(dp1135
sg71
g1120
sg64
(lp1136
g57
(g58
g59
NtRp1137
(dp1138
g62
(dp1139
g70
I4
ssg71
g1133
sg64
(lp1140
S'CGI/1.1'
p1141
asbasbasbag57
(g73
g59
NtRp1142
(dp1143
g62
(dp1144
sg71
g1007
sg64
(lp1145
g57
(g78
g59
NtRp1146
(dp1147
g62
(dp1148
g82
g83
ssg71
g1142
sg64
(lp1149
S'gluon_parent'
p1150
asbag57
(g78
g59
NtRp1151
(dp1152
g62
(dp1153
g89
g90
ssg71
g1142
sg64
(lp1154
S':'
asbag57
(g78
g59
NtRp1155
(dp1156
g62
(dp1157
sg71
g1142
sg64
(lp1158
g57
(g58
g59
NtRp1159
(dp1160
g62
(dp1161
g70
I4
ssg71
g1155
sg64
(lp1162
g1054
asbasbasbag57
(g73
g59
NtRp1163
(dp1164
g62
(dp1165
sg71
g1007
sg64
(lp1166
g57
(g78
g59
NtRp1167
(dp1168
g62
(dp1169
g82
g83
ssg71
g1163
sg64
(lp1170
S'http_accept'
p1171
asbag57
(g78
g59
NtRp1172
(dp1173
g62
(dp1174
g89
g90
ssg71
g1163
sg64
(lp1175
S':'
asbag57
(g78
g59
NtRp1176
(dp1177
g62
(dp1178
sg71
g1163
sg64
(lp1179
g57
(g58
g59
NtRp1180
(dp1181
g62
(dp1182
g70
I4
ssg71
g1176
sg64
(lp1183
S'text/html,application/xhtml+xml,application/xml;q=0.9,*/*;q=0.8'
p1184
asbasbasbag57
(g73
g59
NtRp1185
(dp1186
g62
(dp1187
sg71
g1007
sg64
(lp1188
g57
(g78
g59
NtRp1189
(dp1190
g62
(dp1191
g82
g83
ssg71
g1185
sg64
(lp1192
S'http_accept_charset'
p1193
asbag57
(g78
g59
NtRp1194
(dp1195
g62
(dp1196
g89
g90
ssg71
g1185
sg64
(lp1197
S':'
asbag57
(g78
g59
NtRp1198
(dp1199
g62
(dp1200
sg71
g1185
sg64
(lp1201
g57
(g58
g59
NtRp1202
(dp1203
g62
(dp1204
g70
I4
ssg71
g1198
sg64
(lp1205
S'ISO-8859-1,utf-8;q=0.7,*;q=0.3'
p1206
asbasbasbag57
(g73
g59
NtRp1207
(dp1208
g62
(dp1209
sg71
g1007
sg64
(lp1210
g57
(g78
g59
NtRp1211
(dp1212
g62
(dp1213
g82
g83
ssg71
g1207
sg64
(lp1214
S'http_accept_encoding'
p1215
asbag57
(g78
g59
NtRp1216
(dp1217
g62
(dp1218
g89
g90
ssg71
g1207
sg64
(lp1219
S':'
asbag57
(g78
g59
NtRp1220
(dp1221
g62
(dp1222
sg71
g1207
sg64
(lp1223
g57
(g58
g59
NtRp1224
(dp1225
g62
(dp1226
g70
I4
ssg71
g1220
sg64
(lp1227
S'gzip,deflate,sdch'
p1228
asbasbasbag57
(g73
g59
NtRp1229
(dp1230
g62
(dp1231
sg71
g1007
sg64
(lp1232
g57
(g78
g59
NtRp1233
(dp1234
g62
(dp1235
g82
g83
ssg71
g1229
sg64
(lp1236
S'http_accept_language'
p1237
asbag57
(g78
g59
NtRp1238
(dp1239
g62
(dp1240
g89
g90
ssg71
g1229
sg64
(lp1241
S':'
asbag57
(g78
g59
NtRp1242
(dp1243
g62
(dp1244
sg71
g1229
sg64
(lp1245
g57
(g58
g59
NtRp1246
(dp1247
g62
(dp1248
g70
I4
ssg71
g1242
sg64
(lp1249
S'es-ES,es;q=0.8'
p1250
asbasbasbag57
(g73
g59
NtRp1251
(dp1252
g62
(dp1253
sg71
g1007
sg64
(lp1254
g57
(g78
g59
NtRp1255
(dp1256
g62
(dp1257
g82
g83
ssg71
g1251
sg64
(lp1258
S'http_cache_control'
p1259
asbag57
(g78
g59
NtRp1260
(dp1261
g62
(dp1262
g89
g90
ssg71
g1251
sg64
(lp1263
S':'
asbag57
(g78
g59
NtRp1264
(dp1265
g62
(dp1266
sg71
g1251
sg64
(lp1267
g57
(g58
g59
NtRp1268
(dp1269
g62
(dp1270
g70
I4
ssg71
g1264
sg64
(lp1271
S'max-age=0'
p1272
asbasbasbag57
(g73
g59
NtRp1273
(dp1274
g62
(dp1275
sg71
g1007
sg64
(lp1276
g57
(g78
g59
NtRp1277
(dp1278
g62
(dp1279
g82
g83
ssg71
g1273
sg64
(lp1280
S'http_connection'
p1281
asbag57
(g78
g59
NtRp1282
(dp1283
g62
(dp1284
g89
g90
ssg71
g1273
sg64
(lp1285
S':'
asbag57
(g78
g59
NtRp1286
(dp1287
g62
(dp1288
sg71
g1273
sg64
(lp1289
g57
(g58
g59
NtRp1290
(dp1291
g62
(dp1292
g70
I4
ssg71
g1286
sg64
(lp1293
S'keep-alive'
p1294
asbasbasbag57
(g73
g59
NtRp1295
(dp1296
g62
(dp1297
sg71
g1007
sg64
(lp1298
g57
(g78
g59
NtRp1299
(dp1300
g62
(dp1301
g82
g83
ssg71
g1295
sg64
(lp1302
S'http_cookie'
p1303
asbag57
(g78
g59
NtRp1304
(dp1305
g62
(dp1306
g89
g90
ssg71
g1295
sg64
(lp1307
S':'
asbag57
(g78
g59
NtRp1308
(dp1309
g62
(dp1310
sg71
g1295
sg64
(lp1311
g57
(g58
g59
NtRp1312
(dp1313
g62
(dp1314
g70
I4
ssg71
g1308
sg64
(lp1315
S'session_id_randomwords=127.0.0.1-1fe5eb3c-05ae-47c4-864c-4c9f43ac620c; session_id_welcome=127.0.0.1-26ca6cd3-84d7-4753-ad50-3b7ae1bcfc78; session_id_admin=127.0.0.1-eb1bfc92-b1d7-40f5-bac2-0727bba915fa; session_id_contador=127.0.0.1-2b69a554-5d73-450d-a1a3-2f7111772fbb'
p1316
asbasbasbag57
(g73
g59
NtRp1317
(dp1318
g62
(dp1319
sg71
g1007
sg64
(lp1320
g57
(g78
g59
NtRp1321
(dp1322
g62
(dp1323
g82
g83
ssg71
g1317
sg64
(lp1324
S'http_host'
p1325
asbag57
(g78
g59
NtRp1326
(dp1327
g62
(dp1328
g89
g90
ssg71
g1317
sg64
(lp1329
S':'
asbag57
(g78
g59
NtRp1330
(dp1331
g62
(dp1332
sg71
g1317
sg64
(lp1333
g57
(g58
g59
NtRp1334
(dp1335
g62
(dp1336
g70
I4
ssg71
g1330
sg64
(lp1337
S'web2py'
p1338
asbasbasbag57
(g73
g59
NtRp1339
(dp1340
g62
(dp1341
sg71
g1007
sg64
(lp1342
g57
(g78
g59
NtRp1343
(dp1344
g62
(dp1345
g82
g83
ssg71
g1339
sg64
(lp1346
S'http_user_agent'
p1347
asbag57
(g78
g59
NtRp1348
(dp1349
g62
(dp1350
g89
g90
ssg71
g1339
sg64
(lp1351
S':'
asbag57
(g78
g59
NtRp1352
(dp1353
g62
(dp1354
sg71
g1339
sg64
(lp1355
g57
(g58
g59
NtRp1356
(dp1357
g62
(dp1358
g70
I4
ssg71
g1352
sg64
(lp1359
S'Mozilla/5.0 (Macintosh; Intel Mac OS X 10_8_0) AppleWebKit/537.1 (KHTML, like Gecko) Chrome/21.0.1180.57 Safari/537.1'
p1360
asbasbasbag57
(g73
g59
NtRp1361
(dp1362
g62
(dp1363
sg71
g1007
sg64
(lp1364
g57
(g78
g59
NtRp1365
(dp1366
g62
(dp1367
g82
g83
ssg71
g1361
sg64
(lp1368
S'is_jython'
p1369
asbag57
(g78
g59
NtRp1370
(dp1371
g62
(dp1372
g89
g90
ssg71
g1361
sg64
(lp1373
S':'
asbag57
(g78
g59
NtRp1374
(dp1375
g62
(dp1376
sg71
g1361
sg64
(lp1377
g57
(g58
g59
NtRp1378
(dp1379
g62
(dp1380
g70
I4
ssg71
g1374
sg64
(lp1381
g100
asbasbasbag57
(g73
g59
NtRp1382
(dp1383
g62
(dp1384
sg71
g1007
sg64
(lp1385
g57
(g78
g59
NtRp1386
(dp1387
g62
(dp1388
g82
g83
ssg71
g1382
sg64
(lp1389
S'is_pypy'
p1390
asbag57
(g78
g59
NtRp1391
(dp1392
g62
(dp1393
g89
g90
ssg71
g1382
sg64
(lp1394
S':'
asbag57
(g78
g59
NtRp1395
(dp1396
g62
(dp1397
sg71
g1382
sg64
(lp1398
g57
(g58
g59
NtRp1399
(dp1400
g62
(dp1401
g70
I4
ssg71
g1395
sg64
(lp1402
g100
asbasbasbag57
(g73
g59
NtRp1403
(dp1404
g62
(dp1405
sg71
g1007
sg64
(lp1406
g57
(g78
g59
NtRp1407
(dp1408
g62
(dp1409
g82
g83
ssg71
g1403
sg64
(lp1410
S'mod_wsgi_application_group'
p1411
asbag57
(g78
g59
NtRp1412
(dp1413
g62
(dp1414
g89
g90
ssg71
g1403
sg64
(lp1415
S':'
asbag57
(g78
g59
NtRp1416
(dp1417
g62
(dp1418
sg71
g1403
sg64
(lp1419
g57
(g58
g59
NtRp1420
(dp1421
g62
(dp1422
g70
I4
ssg71
g1416
sg64
(lp1423
S'web2py|'
p1424
asbasbasbag57
(g73
g59
NtRp1425
(dp1426
g62
(dp1427
sg71
g1007
sg64
(lp1428
g57
(g78
g59
NtRp1429
(dp1430
g62
(dp1431
g82
g83
ssg71
g1425
sg64
(lp1432
S'mod_wsgi_callable_object'
p1433
asbag57
(g78
g59
NtRp1434
(dp1435
g62
(dp1436
g89
g90
ssg71
g1425
sg64
(lp1437
S':'
asbag57
(g78
g59
NtRp1438
(dp1439
g62
(dp1440
sg71
g1425
sg64
(lp1441
g57
(g58
g59
NtRp1442
(dp1443
g62
(dp1444
g70
I4
ssg71
g1438
sg64
(lp1445
S'application'
p1446
asbasbasbag57
(g73
g59
NtRp1447
(dp1448
g62
(dp1449
sg71
g1007
sg64
(lp1450
g57
(g78
g59
NtRp1451
(dp1452
g62
(dp1453
g82
g83
ssg71
g1447
sg64
(lp1454
S'mod_wsgi_handler_script'
p1455
asbag57
(g78
g59
NtRp1456
(dp1457
g62
(dp1458
g89
g90
ssg71
g1447
sg64
(lp1459
S':'
asbag57
(g78
g59
NtRp1460
(dp1461
g62
(dp1462
sg71
g1447
sg64
(lp1463
g57
(g58
g59
NtRp1464
(dp1465
g62
(dp1466
g70
I4
ssg71
g1460
sg64
(lp1467
S''
asbasbasbag57
(g73
g59
NtRp1468
(dp1469
g62
(dp1470
sg71
g1007
sg64
(lp1471
g57
(g78
g59
NtRp1472
(dp1473
g62
(dp1474
g82
g83
ssg71
g1468
sg64
(lp1475
S'mod_wsgi_input_chunked'
p1476
asbag57
(g78
g59
NtRp1477
(dp1478
g62
(dp1479
g89
g90
ssg71
g1468
sg64
(lp1480
S':'
asbag57
(g78
g59
NtRp1481
(dp1482
g62
(dp1483
sg71
g1468
sg64
(lp1484
g57
(g58
g59
NtRp1485
(dp1486
g62
(dp1487
g70
I4
ssg71
g1481
sg64
(lp1488
S'0'
asbasbasbag57
(g73
g59
NtRp1489
(dp1490
g62
(dp1491
sg71
g1007
sg64
(lp1492
g57
(g78
g59
NtRp1493
(dp1494
g62
(dp1495
g82
g83
ssg71
g1489
sg64
(lp1496
S'mod_wsgi_listener_host'
p1497
asbag57
(g78
g59
NtRp1498
(dp1499
g62
(dp1500
g89
g90
ssg71
g1489
sg64
(lp1501
S':'
asbag57
(g78
g59
NtRp1502
(dp1503
g62
(dp1504
sg71
g1489
sg64
(lp1505
g57
(g58
g59
NtRp1506
(dp1507
g62
(dp1508
g70
I4
ssg71
g1502
sg64
(lp1509
S''
asbasbasbag57
(g73
g59
NtRp1510
(dp1511
g62
(dp1512
sg71
g1007
sg64
(lp1513
g57
(g78
g59
NtRp1514
(dp1515
g62
(dp1516
g82
g83
ssg71
g1510
sg64
(lp1517
S'mod_wsgi_listener_port'
p1518
asbag57
(g78
g59
NtRp1519
(dp1520
g62
(dp1521
g89
g90
ssg71
g1510
sg64
(lp1522
S':'
asbag57
(g78
g59
NtRp1523
(dp1524
g62
(dp1525
sg71
g1510
sg64
(lp1526
g57
(g58
g59
NtRp1527
(dp1528
g62
(dp1529
g70
I4
ssg71
g1523
sg64
(lp1530
S'80'
p1531
asbasbasbag57
(g73
g59
NtRp1532
(dp1533
g62
(dp1534
sg71
g1007
sg64
(lp1535
g57
(g78
g59
NtRp1536
(dp1537
g62
(dp1538
g82
g83
ssg71
g1532
sg64
(lp1539
S'mod_wsgi_process_group'
p1540
asbag57
(g78
g59
NtRp1541
(dp1542
g62
(dp1543
g89
g90
ssg71
g1532
sg64
(lp1544
S':'
asbag57
(g78
g59
NtRp1545
(dp1546
g62
(dp1547
sg71
g1532
sg64
(lp1548
g57
(g58
g59
NtRp1549
(dp1550
g62
(dp1551
g70
I4
ssg71
g1545
sg64
(lp1552
S''
asbasbasbag57
(g73
g59
NtRp1553
(dp1554
g62
(dp1555
sg71
g1007
sg64
(lp1556
g57
(g78
g59
NtRp1557
(dp1558
g62
(dp1559
g82
g83
ssg71
g1553
sg64
(lp1560
S'mod_wsgi_request_handler'
p1561
asbag57
(g78
g59
NtRp1562
(dp1563
g62
(dp1564
g89
g90
ssg71
g1553
sg64
(lp1565
S':'
asbag57
(g78
g59
NtRp1566
(dp1567
g62
(dp1568
sg71
g1553
sg64
(lp1569
g57
(g58
g59
NtRp1570
(dp1571
g62
(dp1572
g70
I4
ssg71
g1566
sg64
(lp1573
S'wsgi-script'
p1574
asbasbasbag57
(g73
g59
NtRp1575
(dp1576
g62
(dp1577
sg71
g1007
sg64
(lp1578
g57
(g78
g59
NtRp1579
(dp1580
g62
(dp1581
g82
g83
ssg71
g1575
sg64
(lp1582
S'mod_wsgi_script_reloading'
p1583
asbag57
(g78
g59
NtRp1584
(dp1585
g62
(dp1586
g89
g90
ssg71
g1575
sg64
(lp1587
S':'
asbag57
(g78
g59
NtRp1588
(dp1589
g62
(dp1590
sg71
g1575
sg64
(lp1591
g57
(g58
g59
NtRp1592
(dp1593
g62
(dp1594
g70
I4
ssg71
g1588
sg64
(lp1595
S'1'
asbasbasbag57
(g73
g59
NtRp1596
(dp1597
g62
(dp1598
sg71
g1007
sg64
(lp1599
g57
(g78
g59
NtRp1600
(dp1601
g62
(dp1602
g82
g83
ssg71
g1596
sg64
(lp1603
S'mod_wsgi_version'
p1604
asbag57
(g78
g59
NtRp1605
(dp1606
g62
(dp1607
g89
g90
ssg71
g1596
sg64
(lp1608
S':'
asbag57
(g78
g59
NtRp1609
(dp1610
g62
(dp1611
sg71
g1596
sg64
(lp1612
g57
(g58
g59
NtRp1613
(dp1614
g62
(dp1615
g70
I4
ssg71
g1609
sg64
(lp1616
g57
(g66
g59
NtRp1617
(dp1618
g62
(dp1619
g70
I3
ssg71
Nsg64
(lp1620
g57
(g73
g59
NtRp1621
(dp1622
g62
(dp1623
sg71
g1617
sg64
(lp1624
g57
(g78
g59
NtRp1625
(dp1626
g62
(dp1627
sg71
g1621
sg64
(lp1628
g57
(g58
g59
NtRp1629
(dp1630
g62
(dp1631
g70
I3
ssg71
g1625
sg64
(lp1632
S'3'
asbasbasbag57
(g73
g59
NtRp1633
(dp1634
g62
(dp1635
sg71
g1617
sg64
(lp1636
g57
(g78
g59
NtRp1637
(dp1638
g62
(dp1639
sg71
g1633
sg64
(lp1640
g57
(g58
g59
NtRp1641
(dp1642
g62
(dp1643
g70
I3
ssg71
g1637
sg64
(lp1644
S'3'
asbasbasbasbasbasbasbag57
(g73
g59
NtRp1645
(dp1646
g62
(dp1647
sg71
g1007
sg64
(lp1648
g57
(g78
g59
NtRp1649
(dp1650
g62
(dp1651
g82
g83
ssg71
g1645
sg64
(lp1652
S'path_info'
p1653
asbag57
(g78
g59
NtRp1654
(dp1655
g62
(dp1656
g89
g90
ssg71
g1645
sg64
(lp1657
S':'
asbag57
(g78
g59
NtRp1658
(dp1659
g62
(dp1660
sg71
g1645
sg64
(lp1661
g57
(g58
g59
NtRp1662
(dp1663
g62
(dp1664
g70
I4
ssg71
g1658
sg64
(lp1665
S'/contador/default/index'
p1666
asbasbasbag57
(g73
g59
NtRp1667
(dp1668
g62
(dp1669
sg71
g1007
sg64
(lp1670
g57
(g78
g59
NtRp1671
(dp1672
g62
(dp1673
g82
g83
ssg71
g1667
sg64
(lp1674
S'path_translated'
p1675
asbag57
(g78
g59
NtRp1676
(dp1677
g62
(dp1678
g89
g90
ssg71
g1667
sg64
(lp1679
S':'
asbag57
(g78
g59
NtRp1680
(dp1681
g62
(dp1682
sg71
g1667
sg64
(lp1683
g57
(g58
g59
NtRp1684
(dp1685
g62
(dp1686
g70
I4
ssg71
g1680
sg64
(lp1687
S'/Users/emir/Documents/beardcode/web2py/wsgihandler.py/contador/default/index'
p1688
asbasbasbag57
(g73
g59
NtRp1689
(dp1690
g62
(dp1691
sg71
g1007
sg64
(lp1692
g57
(g78
g59
NtRp1693
(dp1694
g62
(dp1695
g82
g83
ssg71
g1689
sg64
(lp1696
S'query_string'
p1697
asbag57
(g78
g59
NtRp1698
(dp1699
g62
(dp1700
g89
g90
ssg71
g1689
sg64
(lp1701
S':'
asbag57
(g78
g59
NtRp1702
(dp1703
g62
(dp1704
sg71
g1689
sg64
(lp1705
g57
(g58
g59
NtRp1706
(dp1707
g62
(dp1708
g70
I4
ssg71
g1702
sg64
(lp1709
S''
asbasbasbag57
(g73
g59
NtRp1710
(dp1711
g62
(dp1712
sg71
g1007
sg64
(lp1713
g57
(g78
g59
NtRp1714
(dp1715
g62
(dp1716
g82
g83
ssg71
g1710
sg64
(lp1717
S'remote_addr'
p1718
asbag57
(g78
g59
NtRp1719
(dp1720
g62
(dp1721
g89
g90
ssg71
g1710
sg64
(lp1722
S':'
asbag57
(g78
g59
NtRp1723
(dp1724
g62
(dp1725
sg71
g1710
sg64
(lp1726
g57
(g58
g59
NtRp1727
(dp1728
g62
(dp1729
g70
I4
ssg71
g1723
sg64
(lp1730
g190
asbasbasbag57
(g73
g59
NtRp1731
(dp1732
g62
(dp1733
sg71
g1007
sg64
(lp1734
g57
(g78
g59
NtRp1735
(dp1736
g62
(dp1737
g82
g83
ssg71
g1731
sg64
(lp1738
S'remote_port'
p1739
asbag57
(g78
g59
NtRp1740
(dp1741
g62
(dp1742
g89
g90
ssg71
g1731
sg64
(lp1743
S':'
asbag57
(g78
g59
NtRp1744
(dp1745
g62
(dp1746
sg71
g1731
sg64
(lp1747
g57
(g58
g59
NtRp1748
(dp1749
g62
(dp1750
g70
I4
ssg71
g1744
sg64
(lp1751
S'53279'
p1752
asbasbasbag57
(g73
g59
NtRp1753
(dp1754
g62
(dp1755
sg71
g1007
sg64
(lp1756
g57
(g78
g59
NtRp1757
(dp1758
g62
(dp1759
g82
g83
ssg71
g1753
sg64
(lp1760
S'request_method'
p1761
asbag57
(g78
g59
NtRp1762
(dp1763
g62
(dp1764
g89
g90
ssg71
g1753
sg64
(lp1765
S':'
asbag57
(g78
g59
NtRp1766
(dp1767
g62
(dp1768
sg71
g1753
sg64
(lp1769
g57
(g58
g59
NtRp1770
(dp1771
g62
(dp1772
g70
I4
ssg71
g1766
sg64
(lp1773
S'GET'
p1774
asbasbasbag57
(g73
g59
NtRp1775
(dp1776
g62
(dp1777
sg71
g1007
sg64
(lp1778
g57
(g78
g59
NtRp1779
(dp1780
g62
(dp1781
g82
g83
ssg71
g1775
sg64
(lp1782
S'request_uri'
p1783
asbag57
(g78
g59
NtRp1784
(dp1785
g62
(dp1786
g89
g90
ssg71
g1775
sg64
(lp1787
S':'
asbag57
(g78
g59
NtRp1788
(dp1789
g62
(dp1790
sg71
g1775
sg64
(lp1791
g57
(g58
g59
NtRp1792
(dp1793
g62
(dp1794
g70
I4
ssg71
g1788
sg64
(lp1795
S'/contador/default/index'
p1796
asbasbasbag57
(g73
g59
NtRp1797
(dp1798
g62
(dp1799
sg71
g1007
sg64
(lp1800
g57
(g78
g59
NtRp1801
(dp1802
g62
(dp1803
g82
g83
ssg71
g1797
sg64
(lp1804
S'script_filename'
p1805
asbag57
(g78
g59
NtRp1806
(dp1807
g62
(dp1808
g89
g90
ssg71
g1797
sg64
(lp1809
S':'
asbag57
(g78
g59
NtRp1810
(dp1811
g62
(dp1812
sg71
g1797
sg64
(lp1813
g57
(g58
g59
NtRp1814
(dp1815
g62
(dp1816
g70
I4
ssg71
g1810
sg64
(lp1817
S'/Users/emir/Documents/beardcode/web2py/wsgihandler.py'
p1818
asbasbasbag57
(g73
g59
NtRp1819
(dp1820
g62
(dp1821
sg71
g1007
sg64
(lp1822
g57
(g78
g59
NtRp1823
(dp1824
g62
(dp1825
g82
g83
ssg71
g1819
sg64
(lp1826
S'script_name'
p1827
asbag57
(g78
g59
NtRp1828
(dp1829
g62
(dp1830
g89
g90
ssg71
g1819
sg64
(lp1831
S':'
asbag57
(g78
g59
NtRp1832
(dp1833
g62
(dp1834
sg71
g1819
sg64
(lp1835
g57
(g58
g59
NtRp1836
(dp1837
g62
(dp1838
g70
I4
ssg71
g1832
sg64
(lp1839
S''
asbasbasbag57
(g73
g59
NtRp1840
(dp1841
g62
(dp1842
sg71
g1007
sg64
(lp1843
g57
(g78
g59
NtRp1844
(dp1845
g62
(dp1846
g82
g83
ssg71
g1840
sg64
(lp1847
S'server_addr'
p1848
asbag57
(g78
g59
NtRp1849
(dp1850
g62
(dp1851
g89
g90
ssg71
g1840
sg64
(lp1852
S':'
asbag57
(g78
g59
NtRp1853
(dp1854
g62
(dp1855
sg71
g1840
sg64
(lp1856
g57
(g58
g59
NtRp1857
(dp1858
g62
(dp1859
g70
I4
ssg71
g1853
sg64
(lp1860
S'127.0.0.1'
p1861
asbasbasbag57
(g73
g59
NtRp1862
(dp1863
g62
(dp1864
sg71
g1007
sg64
(lp1865
g57
(g78
g59
NtRp1866
(dp1867
g62
(dp1868
g82
g83
ssg71
g1862
sg64
(lp1869
S'server_admin'
p1870
asbag57
(g78
g59
NtRp1871
(dp1872
g62
(dp1873
g89
g90
ssg71
g1862
sg64
(lp1874
S':'
asbag57
(g78
g59
NtRp1875
(dp1876
g62
(dp1877
sg71
g1862
sg64
(lp1878
g57
(g58
g59
NtRp1879
(dp1880
g62
(dp1881
g70
I4
ssg71
g1875
sg64
(lp1882
S'you@example.com'
p1883
asbasbasbag57
(g73
g59
NtRp1884
(dp1885
g62
(dp1886
sg71
g1007
sg64
(lp1887
g57
(g78
g59
NtRp1888
(dp1889
g62
(dp1890
g82
g83
ssg71
g1884
sg64
(lp1891
S'server_name'
p1892
asbag57
(g78
g59
NtRp1893
(dp1894
g62
(dp1895
g89
g90
ssg71
g1884
sg64
(lp1896
S':'
asbag57
(g78
g59
NtRp1897
(dp1898
g62
(dp1899
sg71
g1884
sg64
(lp1900
g57
(g58
g59
NtRp1901
(dp1902
g62
(dp1903
g70
I4
ssg71
g1897
sg64
(lp1904
S'web2py'
p1905
asbasbasbag57
(g73
g59
NtRp1906
(dp1907
g62
(dp1908
sg71
g1007
sg64
(lp1909
g57
(g78
g59
NtRp1910
(dp1911
g62
(dp1912
g82
g83
ssg71
g1906
sg64
(lp1913
S'server_port'
p1914
asbag57
(g78
g59
NtRp1915
(dp1916
g62
(dp1917
g89
g90
ssg71
g1906
sg64
(lp1918
S':'
asbag57
(g78
g59
NtRp1919
(dp1920
g62
(dp1921
sg71
g1906
sg64
(lp1922
g57
(g58
g59
NtRp1923
(dp1924
g62
(dp1925
g70
I4
ssg71
g1919
sg64
(lp1926
S'80'
p1927
asbasbasbag57
(g73
g59
NtRp1928
(dp1929
g62
(dp1930
sg71
g1007
sg64
(lp1931
g57
(g78
g59
NtRp1932
(dp1933
g62
(dp1934
g82
g83
ssg71
g1928
sg64
(lp1935
S'server_protocol'
p1936
asbag57
(g78
g59
NtRp1937
(dp1938
g62
(dp1939
g89
g90
ssg71
g1928
sg64
(lp1940
S':'
asbag57
(g78
g59
NtRp1941
(dp1942
g62
(dp1943
sg71
g1928
sg64
(lp1944
g57
(g58
g59
NtRp1945
(dp1946
g62
(dp1947
g70
I4
ssg71
g1941
sg64
(lp1948
S'HTTP/1.1'
p1949
asbasbasbag57
(g73
g59
NtRp1950
(dp1951
g62
(dp1952
sg71
g1007
sg64
(lp1953
g57
(g78
g59
NtRp1954
(dp1955
g62
(dp1956
g82
g83
ssg71
g1950
sg64
(lp1957
S'server_signature'
p1958
asbag57
(g78
g59
NtRp1959
(dp1960
g62
(dp1961
g89
g90
ssg71
g1950
sg64
(lp1962
S':'
asbag57
(g78
g59
NtRp1963
(dp1964
g62
(dp1965
sg71
g1950
sg64
(lp1966
g57
(g58
g59
NtRp1967
(dp1968
g62
(dp1969
g70
I4
ssg71
g1963
sg64
(lp1970
S''
asbasbasbag57
(g73
g59
NtRp1971
(dp1972
g62
(dp1973
sg71
g1007
sg64
(lp1974
g57
(g78
g59
NtRp1975
(dp1976
g62
(dp1977
g82
g83
ssg71
g1971
sg64
(lp1978
S'server_software'
p1979
asbag57
(g78
g59
NtRp1980
(dp1981
g62
(dp1982
g89
g90
ssg71
g1971
sg64
(lp1983
S':'
asbag57
(g78
g59
NtRp1984
(dp1985
g62
(dp1986
sg71
g1971
sg64
(lp1987
g57
(g58
g59
NtRp1988
(dp1989
g62
(dp1990
g70
I4
ssg71
g1984
sg64
(lp1991
S'Apache/2.2.22 (Unix) DAV/2 mod_wsgi/3.3 Python/2.6.7 PHP/5.3.13 with Suhosin-Patch mod_ssl/2.2.22 OpenSSL/0.9.8r'
p1992
asbasbasbag57
(g73
g59
NtRp1993
(dp1994
g62
(dp1995
sg71
g1007
sg64
(lp1996
g57
(g78
g59
NtRp1997
(dp1998
g62
(dp1999
g82
g83
ssg71
g1993
sg64
(lp2000
S'web2py_path'
p2001
asbag57
(g78
g59
NtRp2002
(dp2003
g62
(dp2004
g89
g90
ssg71
g1993
sg64
(lp2005
S':'
asbag57
(g78
g59
NtRp2006
(dp2007
g62
(dp2008
sg71
g1993
sg64
(lp2009
g57
(g58
g59
NtRp2010
(dp2011
g62
(dp2012
g70
I4
ssg71
g2006
sg64
(lp2013
g1054
asbasbasbag57
(g73
g59
NtRp2014
(dp2015
g62
(dp2016
sg71
g1007
sg64
(lp2017
g57
(g78
g59
NtRp2018
(dp2019
g62
(dp2020
g82
g83
ssg71
g2014
sg64
(lp2021
S'web2py_version'
p2022
asbag57
(g78
g59
NtRp2023
(dp2024
g62
(dp2025
g89
g90
ssg71
g2014
sg64
(lp2026
S':'
asbag57
(g78
g59
NtRp2027
(dp2028
g62
(dp2029
sg71
g2014
sg64
(lp2030
g57
(g58
g59
NtRp2031
(dp2032
g62
(dp2033
g70
I4
ssg71
g2027
sg64
(lp2034
g57
(g66
g59
NtRp2035
(dp2036
g62
(dp2037
g70
I3
ssg71
Nsg64
(lp2038
g57
(g73
g59
NtRp2039
(dp2040
g62
(dp2041
sg71
g2035
sg64
(lp2042
g57
(g78
g59
NtRp2043
(dp2044
g62
(dp2045
sg71
g2039
sg64
(lp2046
g57
(g58
g59
NtRp2047
(dp2048
g62
(dp2049
g70
I3
ssg71
g2043
sg64
(lp2050
S'1'
asbasbasbag57
(g73
g59
NtRp2051
(dp2052
g62
(dp2053
sg71
g2035
sg64
(lp2054
g57
(g78
g59
NtRp2055
(dp2056
g62
(dp2057
sg71
g2051
sg64
(lp2058
g57
(g58
g59
NtRp2059
(dp2060
g62
(dp2061
g70
I3
ssg71
g2055
sg64
(lp2062
S'99'
p2063
asbasbasbag57
(g73
g59
NtRp2064
(dp2065
g62
(dp2066
sg71
g2035
sg64
(lp2067
g57
(g78
g59
NtRp2068
(dp2069
g62
(dp2070
sg71
g2064
sg64
(lp2071
g57
(g58
g59
NtRp2072
(dp2073
g62
(dp2074
g70
I3
ssg71
g2068
sg64
(lp2075
S'7'
asbasbasbag57
(g73
g59
NtRp2076
(dp2077
g62
(dp2078
sg71
g2035
sg64
(lp2079
g57
(g78
g59
NtRp2080
(dp2081
g62
(dp2082
sg71
g2076
sg64
(lp2083
g57
(g58
g59
NtRp2084
(dp2085
g62
(dp2086
g70
I3
ssg71
g2080
sg64
(lp2087
S'datetime.datetime(2012, 3, 4, 22, 12, 8)'
p2088
asbasbasbag57
(g73
g59
NtRp2089
(dp2090
g62
(dp2091
sg71
g2035
sg64
(lp2092
g57
(g78
g59
NtRp2093
(dp2094
g62
(dp2095
sg71
g2089
sg64
(lp2096
g57
(g58
g59
NtRp2097
(dp2098
g62
(dp2099
g70
I3
ssg71
g2093
sg64
(lp2100
S'stable'
p2101
asbasbasbasbasbasbasbag57
(g73
g59
NtRp2102
(dp2103
g62
(dp2104
sg71
g1007
sg64
(lp2105
g57
(g78
g59
NtRp2106
(dp2107
g62
(dp2108
g82
g83
ssg71
g2102
sg64
(lp2109
S'wsgi_errors'
p2110
asbag57
(g78
g59
NtRp2111
(dp2112
g62
(dp2113
g89
g90
ssg71
g2102
sg64
(lp2114
S':'
asbag57
(g78
g59
NtRp2115
(dp2116
g62
(dp2117
sg71
g2102
sg64
(lp2118
g57
(g58
g59
NtRp2119
(dp2120
g62
(dp2121
g70
I4
ssg71
g2115
sg64
(lp2122
S'<mod_wsgi.Log object at 0x1105de070>'
p2123
asbasbasbag57
(g73
g59
NtRp2124
(dp2125
g62
(dp2126
sg71
g1007
sg64
(lp2127
g57
(g78
g59
NtRp2128
(dp2129
g62
(dp2130
g82
g83
ssg71
g2124
sg64
(lp2131
S'wsgi_file_wrapper'
p2132
asbag57
(g78
g59
NtRp2133
(dp2134
g62
(dp2135
g89
g90
ssg71
g2124
sg64
(lp2136
S':'
asbag57
(g78
g59
NtRp2137
(dp2138
g62
(dp2139
sg71
g2124
sg64
(lp2140
g57
(g58
g59
NtRp2141
(dp2142
g62
(dp2143
g70
I4
ssg71
g2137
sg64
(lp2144
S'<built-in method file_wrapper of mod_wsgi.Adapter object at 0x10fdb2d50>'
p2145
asbasbasbag57
(g73
g59
NtRp2146
(dp2147
g62
(dp2148
sg71
g1007
sg64
(lp2149
g57
(g78
g59
NtRp2150
(dp2151
g62
(dp2152
g82
g83
ssg71
g2146
sg64
(lp2153
S'wsgi_input'
p2154
asbag57
(g78
g59
NtRp2155
(dp2156
g62
(dp2157
g89
g90
ssg71
g2146
sg64
(lp2158
S':'
asbag57
(g78
g59
NtRp2159
(dp2160
g62
(dp2161
sg71
g2146
sg64
(lp2162
g57
(g58
g59
NtRp2163
(dp2164
g62
(dp2165
g70
I4
ssg71
g2159
sg64
(lp2166
S'<mod_wsgi.Input object at 0x11056e530>'
p2167
asbasbasbag57
(g73
g59
NtRp2168
(dp2169
g62
(dp2170
sg71
g1007
sg64
(lp2171
g57
(g78
g59
NtRp2172
(dp2173
g62
(dp2174
g82
g83
ssg71
g2168
sg64
(lp2175
S'wsgi_multiprocess'
p2176
asbag57
(g78
g59
NtRp2177
(dp2178
g62
(dp2179
g89
g90
ssg71
g2168
sg64
(lp2180
S':'
asbag57
(g78
g59
NtRp2181
(dp2182
g62
(dp2183
sg71
g2168
sg64
(lp2184
g57
(g58
g59
NtRp2185
(dp2186
g62
(dp2187
g70
I4
ssg71
g2181
sg64
(lp2188
S'True'
p2189
asbasbasbag57
(g73
g59
NtRp2190
(dp2191
g62
(dp2192
sg71
g1007
sg64
(lp2193
g57
(g78
g59
NtRp2194
(dp2195
g62
(dp2196
g82
g83
ssg71
g2190
sg64
(lp2197
S'wsgi_multithread'
p2198
asbag57
(g78
g59
NtRp2199
(dp2200
g62
(dp2201
g89
g90
ssg71
g2190
sg64
(lp2202
S':'
asbag57
(g78
g59
NtRp2203
(dp2204
g62
(dp2205
sg71
g2190
sg64
(lp2206
g57
(g58
g59
NtRp2207
(dp2208
g62
(dp2209
g70
I4
ssg71
g2203
sg64
(lp2210
g100
asbasbasbag57
(g73
g59
NtRp2211
(dp2212
g62
(dp2213
sg71
g1007
sg64
(lp2214
g57
(g78
g59
NtRp2215
(dp2216
g62
(dp2217
g82
g83
ssg71
g2211
sg64
(lp2218
S'wsgi_run_once'
p2219
asbag57
(g78
g59
NtRp2220
(dp2221
g62
(dp2222
g89
g90
ssg71
g2211
sg64
(lp2223
S':'
asbag57
(g78
g59
NtRp2224
(dp2225
g62
(dp2226
sg71
g2211
sg64
(lp2227
g57
(g58
g59
NtRp2228
(dp2229
g62
(dp2230
g70
I4
ssg71
g2224
sg64
(lp2231
g100
asbasbasbag57
(g73
g59
NtRp2232
(dp2233
g62
(dp2234
sg71
g1007
sg64
(lp2235
g57
(g78
g59
NtRp2236
(dp2237
g62
(dp2238
g82
g83
ssg71
g2232
sg64
(lp2239
S'wsgi_url_scheme'
p2240
asbag57
(g78
g59
NtRp2241
(dp2242
g62
(dp2243
g89
g90
ssg71
g2232
sg64
(lp2244
S':'
asbag57
(g78
g59
NtRp2245
(dp2246
g62
(dp2247
sg71
g2232
sg64
(lp2248
g57
(g58
g59
NtRp2249
(dp2250
g62
(dp2251
g70
I4
ssg71
g2245
sg64
(lp2252
S'http'
p2253
asbasbasbag57
(g73
g59
NtRp2254
(dp2255
g62
(dp2256
sg71
g1007
sg64
(lp2257
g57
(g78
g59
NtRp2258
(dp2259
g62
(dp2260
g82
g83
ssg71
g2254
sg64
(lp2261
S'wsgi_version'
p2262
asbag57
(g78
g59
NtRp2263
(dp2264
g62
(dp2265
g89
g90
ssg71
g2254
sg64
(lp2266
S':'
asbag57
(g78
g59
NtRp2267
(dp2268
g62
(dp2269
sg71
g2254
sg64
(lp2270
g57
(g58
g59
NtRp2271
(dp2272
g62
(dp2273
g70
I4
ssg71
g2267
sg64
(lp2274
g57
(g66
g59
NtRp2275
(dp2276
g62
(dp2277
g70
I3
ssg71
Nsg64
(lp2278
g57
(g73
g59
NtRp2279
(dp2280
g62
(dp2281
sg71
g2275
sg64
(lp2282
g57
(g78
g59
NtRp2283
(dp2284
g62
(dp2285
sg71
g2279
sg64
(lp2286
g57
(g58
g59
NtRp2287
(dp2288
g62
(dp2289
g70
I3
ssg71
g2283
sg64
(lp2290
S'1'
asbasbasbag57
(g73
g59
NtRp2291
(dp2292
g62
(dp2293
sg71
g2275
sg64
(lp2294
g57
(g78
g59
NtRp2295
(dp2296
g62
(dp2297
sg71
g2291
sg64
(lp2298
g57
(g58
g59
NtRp2299
(dp2300
g62
(dp2301
g70
I3
ssg71
g2295
sg64
(lp2302
S'1'
asbasbasbasbasbasbasbasbasbasbasbag57
(g73
g59
NtRp2303
(dp2304
g62
(dp2305
sg71
g67
sg64
(lp2306
g57
(g78
g59
NtRp2307
(dp2308
g62
(dp2309
g82
g83
ssg71
g2303
sg64
(lp2310
S'extension'
p2311
asbag57
(g78
g59
NtRp2312
(dp2313
g62
(dp2314
g89
g90
ssg71
g2303
sg64
(lp2315
S':'
asbag57
(g78
g59
NtRp2316
(dp2317
g62
(dp2318
sg71
g2303
sg64
(lp2319
g57
(g58
g59
NtRp2320
(dp2321
g62
(dp2322
g70
I5
ssg71
g2316
sg64
(lp2323
S'html'
p2324
asbasbasbag57
(g73
g59
NtRp2325
(dp2326
g62
(dp2327
sg71
g67
sg64
(lp2328
g57
(g78
g59
NtRp2329
(dp2330
g62
(dp2331
g82
g83
ssg71
g2325
sg64
(lp2332
S'folder'
p2333
asbag57
(g78
g59
NtRp2334
(dp2335
g62
(dp2336
g89
g90
ssg71
g2325
sg64
(lp2337
S':'
asbag57
(g78
g59
NtRp2338
(dp2339
g62
(dp2340
sg71
g2325
sg64
(lp2341
g57
(g58
g59
NtRp2342
(dp2343
g62
(dp2344
g70
I5
ssg71
g2338
sg64
(lp2345
S'/Users/emir/Documents/beardcode/web2py/applications/contador/'
p2346
asbasbasbag57
(g73
g59
NtRp2347
(dp2348
g62
(dp2349
sg71
g67
sg64
(lp2350
g57
(g78
g59
NtRp2351
(dp2352
g62
(dp2353
g82
g83
ssg71
g2347
sg64
(lp2354
S'function'
p2355
asbag57
(g78
g59
NtRp2356
(dp2357
g62
(dp2358
g89
g90
ssg71
g2347
sg64
(lp2359
S':'
asbag57
(g78
g59
NtRp2360
(dp2361
g62
(dp2362
sg71
g2347
sg64
(lp2363
g57
(g58
g59
NtRp2364
(dp2365
g62
(dp2366
g70
I5
ssg71
g2360
sg64
(lp2367
S'index'
p2368
asbasbasbag57
(g73
g59
NtRp2369
(dp2370
g62
(dp2371
sg71
g67
sg64
(lp2372
g57
(g78
g59
NtRp2373
(dp2374
g62
(dp2375
g82
g83
ssg71
g2369
sg64
(lp2376
S'get_vars'
p2377
asbag57
(g78
g59
NtRp2378
(dp2379
g62
(dp2380
g89
g90
ssg71
g2369
sg64
(lp2381
S':'
asbag57
(g78
g59
NtRp2382
(dp2383
g62
(dp2384
sg71
g2369
sg64
(lp2385
g57
(g58
g59
NtRp2386
(dp2387
g62
(dp2388
g70
I5
ssg71
g2382
sg64
(lp2389
g57
(g66
g59
NtRp2390
(dp2391
g62
(dp2392
g70
I4
ssg71
Nsg64
(lp2393
sbasbasbasbag57
(g73
g59
NtRp2394
(dp2395
g62
(dp2396
sg71
g67
sg64
(lp2397
g57
(g78
g59
NtRp2398
(dp2399
g62
(dp2400
g82
g83
ssg71
g2394
sg64
(lp2401
S'global_settings'
p2402
asbag57
(g78
g59
NtRp2403
(dp2404
g62
(dp2405
g89
g90
ssg71
g2394
sg64
(lp2406
S':'
asbag57
(g78
g59
NtRp2407
(dp2408
g62
(dp2409
sg71
g2394
sg64
(lp2410
g57
(g58
g59
NtRp2411
(dp2412
g62
(dp2413
g70
I5
ssg71
g2407
sg64
(lp2414
g57
(g66
g59
NtRp2415
(dp2416
g62
(dp2417
g70
I4
ssg71
Nsg64
(lp2418
g57
(g73
g59
NtRp2419
(dp2420
g62
(dp2421
sg71
g2415
sg64
(lp2422
g57
(g78
g59
NtRp2423
(dp2424
g62
(dp2425
g82
g83
ssg71
g2419
sg64
(lp2426
g1019
asbag57
(g78
g59
NtRp2427
(dp2428
g62
(dp2429
g89
g90
ssg71
g2419
sg64
(lp2430
S':'
asbag57
(g78
g59
NtRp2431
(dp2432
g62
(dp2433
sg71
g2419
sg64
(lp2434
g57
(g58
g59
NtRp2435
(dp2436
g62
(dp2437
g70
I4
ssg71
g2431
sg64
(lp2438
S"set(['/Users/emir/Documents/beardcode/web2py/applications/contador/'])"
p2439
asbasbasbag57
(g73
g59
NtRp2440
(dp2441
g62
(dp2442
sg71
g2415
sg64
(lp2443
g57
(g78
g59
NtRp2444
(dp2445
g62
(dp2446
g82
g83
ssg71
g2440
sg64
(lp2447
g1041
asbag57
(g78
g59
NtRp2448
(dp2449
g62
(dp2450
g89
g90
ssg71
g2440
sg64
(lp2451
S':'
asbag57
(g78
g59
NtRp2452
(dp2453
g62
(dp2454
sg71
g2440
sg64
(lp2455
g57
(g58
g59
NtRp2456
(dp2457
g62
(dp2458
g70
I4
ssg71
g2452
sg64
(lp2459
g1054
asbasbasbag57
(g73
g59
NtRp2460
(dp2461
g62
(dp2462
sg71
g2415
sg64
(lp2463
g57
(g78
g59
NtRp2464
(dp2465
g62
(dp2466
g82
g83
ssg71
g2460
sg64
(lp2467
g1063
asbag57
(g78
g59
NtRp2468
(dp2469
g62
(dp2470
g89
g90
ssg71
g2460
sg64
(lp2471
S':'
asbag57
(g78
g59
NtRp2472
(dp2473
g62
(dp2474
sg71
g2460
sg64
(lp2475
g57
(g58
g59
NtRp2476
(dp2477
g62
(dp2478
g70
I4
ssg71
g2472
sg64
(lp2479
S'set([])'
p2480
asbasbasbag57
(g73
g59
NtRp2481
(dp2482
g62
(dp2483
sg71
g2415
sg64
(lp2484
g57
(g78
g59
NtRp2485
(dp2486
g62
(dp2487
g82
g83
ssg71
g2481
sg64
(lp2488
g1085
asbag57
(g78
g59
NtRp2489
(dp2490
g62
(dp2491
g89
g90
ssg71
g2481
sg64
(lp2492
S':'
asbag57
(g78
g59
NtRp2493
(dp2494
g62
(dp2495
sg71
g2481
sg64
(lp2496
g57
(g58
g59
NtRp2497
(dp2498
g62
(dp2499
g70
I4
ssg71
g2493
sg64
(lp2500
g100
asbasbasbag57
(g73
g59
NtRp2501
(dp2502
g62
(dp2503
sg71
g2415
sg64
(lp2504
g57
(g78
g59
NtRp2505
(dp2506
g62
(dp2507
g82
g83
ssg71
g2501
sg64
(lp2508
g1150
asbag57
(g78
g59
NtRp2509
(dp2510
g62
(dp2511
g89
g90
ssg71
g2501
sg64
(lp2512
S':'
asbag57
(g78
g59
NtRp2513
(dp2514
g62
(dp2515
sg71
g2501
sg64
(lp2516
g57
(g58
g59
NtRp2517
(dp2518
g62
(dp2519
g70
I4
ssg71
g2513
sg64
(lp2520
g1054
asbasbasbag57
(g73
g59
NtRp2521
(dp2522
g62
(dp2523
sg71
g2415
sg64
(lp2524
g57
(g78
g59
NtRp2525
(dp2526
g62
(dp2527
g82
g83
ssg71
g2521
sg64
(lp2528
g1369
asbag57
(g78
g59
NtRp2529
(dp2530
g62
(dp2531
g89
g90
ssg71
g2521
sg64
(lp2532
S':'
asbag57
(g78
g59
NtRp2533
(dp2534
g62
(dp2535
sg71
g2521
sg64
(lp2536
g57
(g58
g59
NtRp2537
(dp2538
g62
(dp2539
g70
I4
ssg71
g2533
sg64
(lp2540
g100
asbasbasbag57
(g73
g59
NtRp2541
(dp2542
g62
(dp2543
sg71
g2415
sg64
(lp2544
g57
(g78
g59
NtRp2545
(dp2546
g62
(dp2547
g82
g83
ssg71
g2541
sg64
(lp2548
g1390
asbag57
(g78
g59
NtRp2549
(dp2550
g62
(dp2551
g89
g90
ssg71
g2541
sg64
(lp2552
S':'
asbag57
(g78
g59
NtRp2553
(dp2554
g62
(dp2555
sg71
g2541
sg64
(lp2556
g57
(g58
g59
NtRp2557
(dp2558
g62
(dp2559
g70
I4
ssg71
g2553
sg64
(lp2560
g100
asbasbasbag57
(g73
g59
NtRp2561
(dp2562
g62
(dp2563
sg71
g2415
sg64
(lp2564
g57
(g78
g59
NtRp2565
(dp2566
g62
(dp2567
g82
g83
ssg71
g2561
sg64
(lp2568
g2022
asbag57
(g78
g59
NtRp2569
(dp2570
g62
(dp2571
g89
g90
ssg71
g2561
sg64
(lp2572
S':'
asbag57
(g78
g59
NtRp2573
(dp2574
g62
(dp2575
sg71
g2561
sg64
(lp2576
g57
(g58
g59
NtRp2577
(dp2578
g62
(dp2579
g70
I4
ssg71
g2573
sg64
(lp2580
g57
(g66
g59
NtRp2581
(dp2582
g62
(dp2583
g70
I3
ssg71
Nsg64
(lp2584
g57
(g73
g59
NtRp2585
(dp2586
g62
(dp2587
sg71
g2581
sg64
(lp2588
g57
(g78
g59
NtRp2589
(dp2590
g62
(dp2591
sg71
g2585
sg64
(lp2592
g57
(g58
g59
NtRp2593
(dp2594
g62
(dp2595
g70
I3
ssg71
g2589
sg64
(lp2596
S'1'
asbasbasbag57
(g73
g59
NtRp2597
(dp2598
g62
(dp2599
sg71
g2581
sg64
(lp2600
g57
(g78
g59
NtRp2601
(dp2602
g62
(dp2603
sg71
g2597
sg64
(lp2604
g57
(g58
g59
NtRp2605
(dp2606
g62
(dp2607
g70
I3
ssg71
g2601
sg64
(lp2608
S'99'
p2609
asbasbasbag57
(g73
g59
NtRp2610
(dp2611
g62
(dp2612
sg71
g2581
sg64
(lp2613
g57
(g78
g59
NtRp2614
(dp2615
g62
(dp2616
sg71
g2610
sg64
(lp2617
g57
(g58
g59
NtRp2618
(dp2619
g62
(dp2620
g70
I3
ssg71
g2614
sg64
(lp2621
S'7'
asbasbasbag57
(g73
g59
NtRp2622
(dp2623
g62
(dp2624
sg71
g2581
sg64
(lp2625
g57
(g78
g59
NtRp2626
(dp2627
g62
(dp2628
sg71
g2622
sg64
(lp2629
g57
(g58
g59
NtRp2630
(dp2631
g62
(dp2632
g70
I3
ssg71
g2626
sg64
(lp2633
S'datetime.datetime(2012, 3, 4, 22, 12, 8)'
p2634
asbasbasbag57
(g73
g59
NtRp2635
(dp2636
g62
(dp2637
sg71
g2581
sg64
(lp2638
g57
(g78
g59
NtRp2639
(dp2640
g62
(dp2641
sg71
g2635
sg64
(lp2642
g57
(g58
g59
NtRp2643
(dp2644
g62
(dp2645
g70
I3
ssg71
g2639
sg64
(lp2646
g2101
asbasbasbasbasbasbasbasbasbasbasbag57
(g73
g59
NtRp2647
(dp2648
g62
(dp2649
sg71
g67
sg64
(lp2650
g57
(g78
g59
NtRp2651
(dp2652
g62
(dp2653
g82
g83
ssg71
g2647
sg64
(lp2654
S'is_https'
p2655
asbag57
(g78
g59
NtRp2656
(dp2657
g62
(dp2658
g89
g90
ssg71
g2647
sg64
(lp2659
S':'
asbag57
(g78
g59
NtRp2660
(dp2661
g62
(dp2662
sg71
g2647
sg64
(lp2663
g57
(g58
g59
NtRp2664
(dp2665
g62
(dp2666
g70
I5
ssg71
g2660
sg64
(lp2667
g100
asbasbasbag57
(g73
g59
NtRp2668
(dp2669
g62
(dp2670
sg71
g67
sg64
(lp2671
g57
(g78
g59
NtRp2672
(dp2673
g62
(dp2674
g82
g83
ssg71
g2668
sg64
(lp2675
S'is_local'
p2676
asbag57
(g78
g59
NtRp2677
(dp2678
g62
(dp2679
g89
g90
ssg71
g2668
sg64
(lp2680
S':'
asbag57
(g78
g59
NtRp2681
(dp2682
g62
(dp2683
sg71
g2668
sg64
(lp2684
g57
(g58
g59
NtRp2685
(dp2686
g62
(dp2687
g70
I5
ssg71
g2681
sg64
(lp2688
g2189
asbasbasbag57
(g73
g59
NtRp2689
(dp2690
g62
(dp2691
sg71
g67
sg64
(lp2692
g57
(g78
g59
NtRp2693
(dp2694
g62
(dp2695
g82
g83
ssg71
g2689
sg64
(lp2696
S'is_restful'
p2697
asbag57
(g78
g59
NtRp2698
(dp2699
g62
(dp2700
g89
g90
ssg71
g2689
sg64
(lp2701
S':'
asbag57
(g78
g59
NtRp2702
(dp2703
g62
(dp2704
sg71
g2689
sg64
(lp2705
g57
(g58
g59
NtRp2706
(dp2707
g62
(dp2708
g70
I5
ssg71
g2702
sg64
(lp2709
g100
asbasbasbag57
(g73
g59
NtRp2710
(dp2711
g62
(dp2712
sg71
g67
sg64
(lp2713
g57
(g78
g59
NtRp2714
(dp2715
g62
(dp2716
g82
g83
ssg71
g2710
sg64
(lp2717
S'now'
p2718
asbag57
(g78
g59
NtRp2719
(dp2720
g62
(dp2721
g89
g90
ssg71
g2710
sg64
(lp2722
S':'
asbag57
(g78
g59
NtRp2723
(dp2724
g62
(dp2725
sg71
g2710
sg64
(lp2726
g57
(g58
g59
NtRp2727
(dp2728
g62
(dp2729
g70
I5
ssg71
g2723
sg64
(lp2730
S'datetime.datetime(2012, 8, 3, 10, 42, 17, 699279)'
p2731
asbasbasbag57
(g73
g59
NtRp2732
(dp2733
g62
(dp2734
sg71
g67
sg64
(lp2735
g57
(g78
g59
NtRp2736
(dp2737
g62
(dp2738
g82
g83
ssg71
g2732
sg64
(lp2739
S'post_vars'
p2740
asbag57
(g78
g59
NtRp2741
(dp2742
g62
(dp2743
g89
g90
ssg71
g2732
sg64
(lp2744
S':'
asbag57
(g78
g59
NtRp2745
(dp2746
g62
(dp2747
sg71
g2732
sg64
(lp2748
g57
(g58
g59
NtRp2749
(dp2750
g62
(dp2751
g70
I5
ssg71
g2745
sg64
(lp2752
g57
(g66
g59
NtRp2753
(dp2754
g62
(dp2755
g70
I4
ssg71
Nsg64
(lp2756
sbasbasbasbag57
(g73
g59
NtRp2757
(dp2758
g62
(dp2759
sg71
g67
sg64
(lp2760
g57
(g78
g59
NtRp2761
(dp2762
g62
(dp2763
g82
g83
ssg71
g2757
sg64
(lp2764
S'url'
p2765
asbag57
(g78
g59
NtRp2766
(dp2767
g62
(dp2768
g89
g90
ssg71
g2757
sg64
(lp2769
S':'
asbag57
(g78
g59
NtRp2770
(dp2771
g62
(dp2772
sg71
g2757
sg64
(lp2773
g57
(g58
g59
NtRp2774
(dp2775
g62
(dp2776
g70
I5
ssg71
g2770
sg64
(lp2777
S'/contador/default/index'
p2778
asbasbasbag57
(g73
g59
NtRp2779
(dp2780
g62
(dp2781
sg71
g67
sg64
(lp2782
g57
(g78
g59
NtRp2783
(dp2784
g62
(dp2785
g82
g83
ssg71
g2779
sg64
(lp2786
S'utcnow'
p2787
asbag57
(g78
g59
NtRp2788
(dp2789
g62
(dp2790
g89
g90
ssg71
g2779
sg64
(lp2791
S':'
asbag57
(g78
g59
NtRp2792
(dp2793
g62
(dp2794
sg71
g2779
sg64
(lp2795
g57
(g58
g59
NtRp2796
(dp2797
g62
(dp2798
g70
I5
ssg71
g2792
sg64
(lp2799
S'datetime.datetime(2012, 8, 3, 15, 42, 17, 699366)'
p2800
asbasbasbag57
(g73
g59
NtRp2801
(dp2802
g62
(dp2803
sg71
g67
sg64
(lp2804
g57
(g78
g59
NtRp2805
(dp2806
g62
(dp2807
g82
g83
ssg71
g2801
sg64
(lp2808
S'uuid'
p2809
asbag57
(g78
g59
NtRp2810
(dp2811
g62
(dp2812
g89
g90
ssg71
g2801
sg64
(lp2813
S':'
asbag57
(g78
g59
NtRp2814
(dp2815
g62
(dp2816
sg71
g2801
sg64
(lp2817
g57
(g58
g59
NtRp2818
(dp2819
g62
(dp2820
g70
I5
ssg71
g2814
sg64
(lp2821
S'contador/127.0.0.1.2012-08-03.10-42-17.2325bdb7-338d-4542-883c-0a96a5cd3f4c'
p2822
asbasbasbag57
(g73
g59
NtRp2823
(dp2824
g62
(dp2825
sg71
g67
sg64
(lp2826
g57
(g78
g59
NtRp2827
(dp2828
g62
(dp2829
g82
g83
ssg71
g2823
sg64
(lp2830
S'vars'
p2831
asbag57
(g78
g59
NtRp2832
(dp2833
g62
(dp2834
g89
g90
ssg71
g2823
sg64
(lp2835
S':'
asbag57
(g78
g59
NtRp2836
(dp2837
g62
(dp2838
sg71
g2823
sg64
(lp2839
g57
(g58
g59
NtRp2840
(dp2841
g62
(dp2842
g70
I5
ssg71
g2836
sg64
(lp2843
g57
(g66
g59
NtRp2844
(dp2845
g62
(dp2846
g70
I4
ssg71
Nsg64
(lp2847
sbasbasbasbag57
(g73
g59
NtRp2848
(dp2849
g62
(dp2850
sg71
g67
sg64
(lp2851
g57
(g78
g59
NtRp2852
(dp2853
g62
(dp2854
g82
g83
ssg71
g2848
sg64
(lp2855
S'wsgi'
p2856
asbag57
(g78
g59
NtRp2857
(dp2858
g62
(dp2859
g89
g90
ssg71
g2848
sg64
(lp2860
S':'
asbag57
(g78
g59
NtRp2861
(dp2862
g62
(dp2863
sg71
g2848
sg64
(lp2864
g57
(g58
g59
NtRp2865
(dp2866
g62
(dp2867
g70
I5
ssg71
g2861
sg64
(lp2868
g57
(g66
g59
NtRp2869
(dp2870
g62
(dp2871
g70
I4
ssg71
Nsg64
(lp2872
g57
(g73
g59
NtRp2873
(dp2874
g62
(dp2875
sg71
g2869
sg64
(lp2876
g57
(g78
g59
NtRp2877
(dp2878
g62
(dp2879
g82
g83
ssg71
g2873
sg64
(lp2880
S'environ'
p2881
asbag57
(g78
g59
NtRp2882
(dp2883
g62
(dp2884
g89
g90
ssg71
g2873
sg64
(lp2885
S':'
asbag57
(g78
g59
NtRp2886
(dp2887
g62
(dp2888
sg71
g2873
sg64
(lp2889
g57
(g58
g59
NtRp2890
(dp2891
g62
(dp2892
g70
I4
ssg71
g2886
sg64
(lp2893
g57
(g66
g59
NtRp2894
(dp2895
g62
(dp2896
g70
I3
ssg71
Nsg64
(lp2897
g57
(g73
g59
NtRp2898
(dp2899
g62
(dp2900
sg71
g2894
sg64
(lp2901
g57
(g78
g59
NtRp2902
(dp2903
g62
(dp2904
g82
g83
ssg71
g2898
sg64
(lp2905
S'DOCUMENT_ROOT'
p2906
asbag57
(g78
g59
NtRp2907
(dp2908
g62
(dp2909
g89
g90
ssg71
g2898
sg64
(lp2910
S':'
asbag57
(g78
g59
NtRp2911
(dp2912
g62
(dp2913
sg71
g2898
sg64
(lp2914
g57
(g58
g59
NtRp2915
(dp2916
g62
(dp2917
g70
I3
ssg71
g2911
sg64
(lp2918
g1119
asbasbasbag57
(g73
g59
NtRp2919
(dp2920
g62
(dp2921
sg71
g2894
sg64
(lp2922
g57
(g78
g59
NtRp2923
(dp2924
g62
(dp2925
g82
g83
ssg71
g2919
sg64
(lp2926
S'GATEWAY_INTERFACE'
p2927
asbag57
(g78
g59
NtRp2928
(dp2929
g62
(dp2930
g89
g90
ssg71
g2919
sg64
(lp2931
S':'
asbag57
(g78
g59
NtRp2932
(dp2933
g62
(dp2934
sg71
g2919
sg64
(lp2935
g57
(g58
g59
NtRp2936
(dp2937
g62
(dp2938
g70
I3
ssg71
g2932
sg64
(lp2939
g1141
asbasbasbag57
(g73
g59
NtRp2940
(dp2941
g62
(dp2942
sg71
g2894
sg64
(lp2943
g57
(g78
g59
NtRp2944
(dp2945
g62
(dp2946
g82
g83
ssg71
g2940
sg64
(lp2947
S'HTTP_ACCEPT'
p2948
asbag57
(g78
g59
NtRp2949
(dp2950
g62
(dp2951
g89
g90
ssg71
g2940
sg64
(lp2952
S':'
asbag57
(g78
g59
NtRp2953
(dp2954
g62
(dp2955
sg71
g2940
sg64
(lp2956
g57
(g58
g59
NtRp2957
(dp2958
g62
(dp2959
g70
I3
ssg71
g2953
sg64
(lp2960
g1184
asbasbasbag57
(g73
g59
NtRp2961
(dp2962
g62
(dp2963
sg71
g2894
sg64
(lp2964
g57
(g78
g59
NtRp2965
(dp2966
g62
(dp2967
g82
g83
ssg71
g2961
sg64
(lp2968
S'HTTP_ACCEPT_CHARSET'
p2969
asbag57
(g78
g59
NtRp2970
(dp2971
g62
(dp2972
g89
g90
ssg71
g2961
sg64
(lp2973
S':'
asbag57
(g78
g59
NtRp2974
(dp2975
g62
(dp2976
sg71
g2961
sg64
(lp2977
g57
(g58
g59
NtRp2978
(dp2979
g62
(dp2980
g70
I3
ssg71
g2974
sg64
(lp2981
g1206
asbasbasbag57
(g73
g59
NtRp2982
(dp2983
g62
(dp2984
sg71
g2894
sg64
(lp2985
g57
(g78
g59
NtRp2986
(dp2987
g62
(dp2988
g82
g83
ssg71
g2982
sg64
(lp2989
S'HTTP_ACCEPT_ENCODING'
p2990
asbag57
(g78
g59
NtRp2991
(dp2992
g62
(dp2993
g89
g90
ssg71
g2982
sg64
(lp2994
S':'
asbag57
(g78
g59
NtRp2995
(dp2996
g62
(dp2997
sg71
g2982
sg64
(lp2998
g57
(g58
g59
NtRp2999
(dp3000
g62
(dp3001
g70
I3
ssg71
g2995
sg64
(lp3002
g1228
asbasbasbag57
(g73
g59
NtRp3003
(dp3004
g62
(dp3005
sg71
g2894
sg64
(lp3006
g57
(g78
g59
NtRp3007
(dp3008
g62
(dp3009
g82
g83
ssg71
g3003
sg64
(lp3010
S'HTTP_ACCEPT_LANGUAGE'
p3011
asbag57
(g78
g59
NtRp3012
(dp3013
g62
(dp3014
g89
g90
ssg71
g3003
sg64
(lp3015
S':'
asbag57
(g78
g59
NtRp3016
(dp3017
g62
(dp3018
sg71
g3003
sg64
(lp3019
g57
(g58
g59
NtRp3020
(dp3021
g62
(dp3022
g70
I3
ssg71
g3016
sg64
(lp3023
g1250
asbasbasbag57
(g73
g59
NtRp3024
(dp3025
g62
(dp3026
sg71
g2894
sg64
(lp3027
g57
(g78
g59
NtRp3028
(dp3029
g62
(dp3030
g82
g83
ssg71
g3024
sg64
(lp3031
S'HTTP_CACHE_CONTROL'
p3032
asbag57
(g78
g59
NtRp3033
(dp3034
g62
(dp3035
g89
g90
ssg71
g3024
sg64
(lp3036
S':'
asbag57
(g78
g59
NtRp3037
(dp3038
g62
(dp3039
sg71
g3024
sg64
(lp3040
g57
(g58
g59
NtRp3041
(dp3042
g62
(dp3043
g70
I3
ssg71
g3037
sg64
(lp3044
g1272
asbasbasbag57
(g73
g59
NtRp3045
(dp3046
g62
(dp3047
sg71
g2894
sg64
(lp3048
g57
(g78
g59
NtRp3049
(dp3050
g62
(dp3051
g82
g83
ssg71
g3045
sg64
(lp3052
S'HTTP_CONNECTION'
p3053
asbag57
(g78
g59
NtRp3054
(dp3055
g62
(dp3056
g89
g90
ssg71
g3045
sg64
(lp3057
S':'
asbag57
(g78
g59
NtRp3058
(dp3059
g62
(dp3060
sg71
g3045
sg64
(lp3061
g57
(g58
g59
NtRp3062
(dp3063
g62
(dp3064
g70
I3
ssg71
g3058
sg64
(lp3065
g1294
asbasbasbag57
(g73
g59
NtRp3066
(dp3067
g62
(dp3068
sg71
g2894
sg64
(lp3069
g57
(g78
g59
NtRp3070
(dp3071
g62
(dp3072
g82
g83
ssg71
g3066
sg64
(lp3073
S'HTTP_COOKIE'
p3074
asbag57
(g78
g59
NtRp3075
(dp3076
g62
(dp3077
g89
g90
ssg71
g3066
sg64
(lp3078
S':'
asbag57
(g78
g59
NtRp3079
(dp3080
g62
(dp3081
sg71
g3066
sg64
(lp3082
g57
(g58
g59
NtRp3083
(dp3084
g62
(dp3085
g70
I3
ssg71
g3079
sg64
(lp3086
g1316
asbasbasbag57
(g73
g59
NtRp3087
(dp3088
g62
(dp3089
sg71
g2894
sg64
(lp3090
g57
(g78
g59
NtRp3091
(dp3092
g62
(dp3093
g82
g83
ssg71
g3087
sg64
(lp3094
S'HTTP_HOST'
p3095
asbag57
(g78
g59
NtRp3096
(dp3097
g62
(dp3098
g89
g90
ssg71
g3087
sg64
(lp3099
S':'
asbag57
(g78
g59
NtRp3100
(dp3101
g62
(dp3102
sg71
g3087
sg64
(lp3103
g57
(g58
g59
NtRp3104
(dp3105
g62
(dp3106
g70
I3
ssg71
g3100
sg64
(lp3107
g1338
asbasbasbag57
(g73
g59
NtRp3108
(dp3109
g62
(dp3110
sg71
g2894
sg64
(lp3111
g57
(g78
g59
NtRp3112
(dp3113
g62
(dp3114
g82
g83
ssg71
g3108
sg64
(lp3115
S'HTTP_USER_AGENT'
p3116
asbag57
(g78
g59
NtRp3117
(dp3118
g62
(dp3119
g89
g90
ssg71
g3108
sg64
(lp3120
S':'
asbag57
(g78
g59
NtRp3121
(dp3122
g62
(dp3123
sg71
g3108
sg64
(lp3124
g57
(g58
g59
NtRp3125
(dp3126
g62
(dp3127
g70
I3
ssg71
g3121
sg64
(lp3128
g1360
asbasbasbag57
(g73
g59
NtRp3129
(dp3130
g62
(dp3131
sg71
g2894
sg64
(lp3132
g57
(g78
g59
NtRp3133
(dp3134
g62
(dp3135
g82
g83
ssg71
g3129
sg64
(lp3136
S'PATH_INFO'
p3137
asbag57
(g78
g59
NtRp3138
(dp3139
g62
(dp3140
g89
g90
ssg71
g3129
sg64
(lp3141
S':'
asbag57
(g78
g59
NtRp3142
(dp3143
g62
(dp3144
sg71
g3129
sg64
(lp3145
g57
(g58
g59
NtRp3146
(dp3147
g62
(dp3148
g70
I3
ssg71
g3142
sg64
(lp3149
g1666
asbasbasbag57
(g73
g59
NtRp3150
(dp3151
g62
(dp3152
sg71
g2894
sg64
(lp3153
g57
(g78
g59
NtRp3154
(dp3155
g62
(dp3156
g82
g83
ssg71
g3150
sg64
(lp3157
S'PATH_TRANSLATED'
p3158
asbag57
(g78
g59
NtRp3159
(dp3160
g62
(dp3161
g89
g90
ssg71
g3150
sg64
(lp3162
S':'
asbag57
(g78
g59
NtRp3163
(dp3164
g62
(dp3165
sg71
g3150
sg64
(lp3166
g57
(g58
g59
NtRp3167
(dp3168
g62
(dp3169
g70
I3
ssg71
g3163
sg64
(lp3170
g1688
asbasbasbag57
(g73
g59
NtRp3171
(dp3172
g62
(dp3173
sg71
g2894
sg64
(lp3174
g57
(g78
g59
NtRp3175
(dp3176
g62
(dp3177
g82
g83
ssg71
g3171
sg64
(lp3178
S'QUERY_STRING'
p3179
asbag57
(g78
g59
NtRp3180
(dp3181
g62
(dp3182
g89
g90
ssg71
g3171
sg64
(lp3183
S':'
asbag57
(g78
g59
NtRp3184
(dp3185
g62
(dp3186
sg71
g3171
sg64
(lp3187
g57
(g58
g59
NtRp3188
(dp3189
g62
(dp3190
g70
I3
ssg71
g3184
sg64
(lp3191
S''
asbasbasbag57
(g73
g59
NtRp3192
(dp3193
g62
(dp3194
sg71
g2894
sg64
(lp3195
g57
(g78
g59
NtRp3196
(dp3197
g62
(dp3198
g82
g83
ssg71
g3192
sg64
(lp3199
S'REMOTE_ADDR'
p3200
asbag57
(g78
g59
NtRp3201
(dp3202
g62
(dp3203
g89
g90
ssg71
g3192
sg64
(lp3204
S':'
asbag57
(g78
g59
NtRp3205
(dp3206
g62
(dp3207
sg71
g3192
sg64
(lp3208
g57
(g58
g59
NtRp3209
(dp3210
g62
(dp3211
g70
I3
ssg71
g3205
sg64
(lp3212
g190
asbasbasbag57
(g73
g59
NtRp3213
(dp3214
g62
(dp3215
sg71
g2894
sg64
(lp3216
g57
(g78
g59
NtRp3217
(dp3218
g62
(dp3219
g82
g83
ssg71
g3213
sg64
(lp3220
S'REMOTE_PORT'
p3221
asbag57
(g78
g59
NtRp3222
(dp3223
g62
(dp3224
g89
g90
ssg71
g3213
sg64
(lp3225
S':'
asbag57
(g78
g59
NtRp3226
(dp3227
g62
(dp3228
sg71
g3213
sg64
(lp3229
g57
(g58
g59
NtRp3230
(dp3231
g62
(dp3232
g70
I3
ssg71
g3226
sg64
(lp3233
g1752
asbasbasbag57
(g73
g59
NtRp3234
(dp3235
g62
(dp3236
sg71
g2894
sg64
(lp3237
g57
(g78
g59
NtRp3238
(dp3239
g62
(dp3240
g82
g83
ssg71
g3234
sg64
(lp3241
S'REQUEST_METHOD'
p3242
asbag57
(g78
g59
NtRp3243
(dp3244
g62
(dp3245
g89
g90
ssg71
g3234
sg64
(lp3246
S':'
asbag57
(g78
g59
NtRp3247
(dp3248
g62
(dp3249
sg71
g3234
sg64
(lp3250
g57
(g58
g59
NtRp3251
(dp3252
g62
(dp3253
g70
I3
ssg71
g3247
sg64
(lp3254
g1774
asbasbasbag57
(g73
g59
NtRp3255
(dp3256
g62
(dp3257
sg71
g2894
sg64
(lp3258
g57
(g78
g59
NtRp3259
(dp3260
g62
(dp3261
g82
g83
ssg71
g3255
sg64
(lp3262
S'REQUEST_URI'
p3263
asbag57
(g78
g59
NtRp3264
(dp3265
g62
(dp3266
g89
g90
ssg71
g3255
sg64
(lp3267
S':'
asbag57
(g78
g59
NtRp3268
(dp3269
g62
(dp3270
sg71
g3255
sg64
(lp3271
g57
(g58
g59
NtRp3272
(dp3273
g62
(dp3274
g70
I3
ssg71
g3268
sg64
(lp3275
g1796
asbasbasbag57
(g73
g59
NtRp3276
(dp3277
g62
(dp3278
sg71
g2894
sg64
(lp3279
g57
(g78
g59
NtRp3280
(dp3281
g62
(dp3282
g82
g83
ssg71
g3276
sg64
(lp3283
S'SCRIPT_FILENAME'
p3284
asbag57
(g78
g59
NtRp3285
(dp3286
g62
(dp3287
g89
g90
ssg71
g3276
sg64
(lp3288
S':'
asbag57
(g78
g59
NtRp3289
(dp3290
g62
(dp3291
sg71
g3276
sg64
(lp3292
g57
(g58
g59
NtRp3293
(dp3294
g62
(dp3295
g70
I3
ssg71
g3289
sg64
(lp3296
g1818
asbasbasbag57
(g73
g59
NtRp3297
(dp3298
g62
(dp3299
sg71
g2894
sg64
(lp3300
g57
(g78
g59
NtRp3301
(dp3302
g62
(dp3303
g82
g83
ssg71
g3297
sg64
(lp3304
S'SCRIPT_NAME'
p3305
asbag57
(g78
g59
NtRp3306
(dp3307
g62
(dp3308
g89
g90
ssg71
g3297
sg64
(lp3309
S':'
asbag57
(g78
g59
NtRp3310
(dp3311
g62
(dp3312
sg71
g3297
sg64
(lp3313
g57
(g58
g59
NtRp3314
(dp3315
g62
(dp3316
g70
I3
ssg71
g3310
sg64
(lp3317
S''
asbasbasbag57
(g73
g59
NtRp3318
(dp3319
g62
(dp3320
sg71
g2894
sg64
(lp3321
g57
(g78
g59
NtRp3322
(dp3323
g62
(dp3324
g82
g83
ssg71
g3318
sg64
(lp3325
S'SERVER_ADDR'
p3326
asbag57
(g78
g59
NtRp3327
(dp3328
g62
(dp3329
g89
g90
ssg71
g3318
sg64
(lp3330
S':'
asbag57
(g78
g59
NtRp3331
(dp3332
g62
(dp3333
sg71
g3318
sg64
(lp3334
g57
(g58
g59
NtRp3335
(dp3336
g62
(dp3337
g70
I3
ssg71
g3331
sg64
(lp3338
g1861
asbasbasbag57
(g73
g59
NtRp3339
(dp3340
g62
(dp3341
sg71
g2894
sg64
(lp3342
g57
(g78
g59
NtRp3343
(dp3344
g62
(dp3345
g82
g83
ssg71
g3339
sg64
(lp3346
S'SERVER_ADMIN'
p3347
asbag57
(g78
g59
NtRp3348
(dp3349
g62
(dp3350
g89
g90
ssg71
g3339
sg64
(lp3351
S':'
asbag57
(g78
g59
NtRp3352
(dp3353
g62
(dp3354
sg71
g3339
sg64
(lp3355
g57
(g58
g59
NtRp3356
(dp3357
g62
(dp3358
g70
I3
ssg71
g3352
sg64
(lp3359
g1883
asbasbasbag57
(g73
g59
NtRp3360
(dp3361
g62
(dp3362
sg71
g2894
sg64
(lp3363
g57
(g78
g59
NtRp3364
(dp3365
g62
(dp3366
g82
g83
ssg71
g3360
sg64
(lp3367
S'SERVER_NAME'
p3368
asbag57
(g78
g59
NtRp3369
(dp3370
g62
(dp3371
g89
g90
ssg71
g3360
sg64
(lp3372
S':'
asbag57
(g78
g59
NtRp3373
(dp3374
g62
(dp3375
sg71
g3360
sg64
(lp3376
g57
(g58
g59
NtRp3377
(dp3378
g62
(dp3379
g70
I3
ssg71
g3373
sg64
(lp3380
g1905
asbasbasbag57
(g73
g59
NtRp3381
(dp3382
g62
(dp3383
sg71
g2894
sg64
(lp3384
g57
(g78
g59
NtRp3385
(dp3386
g62
(dp3387
g82
g83
ssg71
g3381
sg64
(lp3388
S'SERVER_PORT'
p3389
asbag57
(g78
g59
NtRp3390
(dp3391
g62
(dp3392
g89
g90
ssg71
g3381
sg64
(lp3393
S':'
asbag57
(g78
g59
NtRp3394
(dp3395
g62
(dp3396
sg71
g3381
sg64
(lp3397
g57
(g58
g59
NtRp3398
(dp3399
g62
(dp3400
g70
I3
ssg71
g3394
sg64
(lp3401
g1927
asbasbasbag57
(g73
g59
NtRp3402
(dp3403
g62
(dp3404
sg71
g2894
sg64
(lp3405
g57
(g78
g59
NtRp3406
(dp3407
g62
(dp3408
g82
g83
ssg71
g3402
sg64
(lp3409
S'SERVER_PROTOCOL'
p3410
asbag57
(g78
g59
NtRp3411
(dp3412
g62
(dp3413
g89
g90
ssg71
g3402
sg64
(lp3414
S':'
asbag57
(g78
g59
NtRp3415
(dp3416
g62
(dp3417
sg71
g3402
sg64
(lp3418
g57
(g58
g59
NtRp3419
(dp3420
g62
(dp3421
g70
I3
ssg71
g3415
sg64
(lp3422
g1949
asbasbasbag57
(g73
g59
NtRp3423
(dp3424
g62
(dp3425
sg71
g2894
sg64
(lp3426
g57
(g78
g59
NtRp3427
(dp3428
g62
(dp3429
g82
g83
ssg71
g3423
sg64
(lp3430
S'SERVER_SIGNATURE'
p3431
asbag57
(g78
g59
NtRp3432
(dp3433
g62
(dp3434
g89
g90
ssg71
g3423
sg64
(lp3435
S':'
asbag57
(g78
g59
NtRp3436
(dp3437
g62
(dp3438
sg71
g3423
sg64
(lp3439
g57
(g58
g59
NtRp3440
(dp3441
g62
(dp3442
g70
I3
ssg71
g3436
sg64
(lp3443
S''
asbasbasbag57
(g73
g59
NtRp3444
(dp3445
g62
(dp3446
sg71
g2894
sg64
(lp3447
g57
(g78
g59
NtRp3448
(dp3449
g62
(dp3450
g82
g83
ssg71
g3444
sg64
(lp3451
S'SERVER_SOFTWARE'
p3452
asbag57
(g78
g59
NtRp3453
(dp3454
g62
(dp3455
g89
g90
ssg71
g3444
sg64
(lp3456
S':'
asbag57
(g78
g59
NtRp3457
(dp3458
g62
(dp3459
sg71
g3444
sg64
(lp3460
g57
(g58
g59
NtRp3461
(dp3462
g62
(dp3463
g70
I3
ssg71
g3457
sg64
(lp3464
g1992
asbasbasbag57
(g73
g59
NtRp3465
(dp3466
g62
(dp3467
sg71
g2894
sg64
(lp3468
g57
(g78
g59
NtRp3469
(dp3470
g62
(dp3471
g82
g83
ssg71
g3465
sg64
(lp3472
S'mod_wsgi.application_group'
p3473
asbag57
(g78
g59
NtRp3474
(dp3475
g62
(dp3476
g89
g90
ssg71
g3465
sg64
(lp3477
S':'
asbag57
(g78
g59
NtRp3478
(dp3479
g62
(dp3480
sg71
g3465
sg64
(lp3481
g57
(g58
g59
NtRp3482
(dp3483
g62
(dp3484
g70
I3
ssg71
g3478
sg64
(lp3485
g1424
asbasbasbag57
(g73
g59
NtRp3486
(dp3487
g62
(dp3488
sg71
g2894
sg64
(lp3489
g57
(g78
g59
NtRp3490
(dp3491
g62
(dp3492
g82
g83
ssg71
g3486
sg64
(lp3493
S'mod_wsgi.callable_object'
p3494
asbag57
(g78
g59
NtRp3495
(dp3496
g62
(dp3497
g89
g90
ssg71
g3486
sg64
(lp3498
S':'
asbag57
(g78
g59
NtRp3499
(dp3500
g62
(dp3501
sg71
g3486
sg64
(lp3502
g57
(g58
g59
NtRp3503
(dp3504
g62
(dp3505
g70
I3
ssg71
g3499
sg64
(lp3506
g1446
asbasbasbag57
(g73
g59
NtRp3507
(dp3508
g62
(dp3509
sg71
g2894
sg64
(lp3510
g57
(g78
g59
NtRp3511
(dp3512
g62
(dp3513
g82
g83
ssg71
g3507
sg64
(lp3514
S'mod_wsgi.handler_script'
p3515
asbag57
(g78
g59
NtRp3516
(dp3517
g62
(dp3518
g89
g90
ssg71
g3507
sg64
(lp3519
S':'
asbag57
(g78
g59
NtRp3520
(dp3521
g62
(dp3522
sg71
g3507
sg64
(lp3523
g57
(g58
g59
NtRp3524
(dp3525
g62
(dp3526
g70
I3
ssg71
g3520
sg64
(lp3527
S''
asbasbasbag57
(g73
g59
NtRp3528
(dp3529
g62
(dp3530
sg71
g2894
sg64
(lp3531
g57
(g78
g59
NtRp3532
(dp3533
g62
(dp3534
g82
g83
ssg71
g3528
sg64
(lp3535
S'mod_wsgi.input_chunked'
p3536
asbag57
(g78
g59
NtRp3537
(dp3538
g62
(dp3539
g89
g90
ssg71
g3528
sg64
(lp3540
S':'
asbag57
(g78
g59
NtRp3541
(dp3542
g62
(dp3543
sg71
g3528
sg64
(lp3544
g57
(g58
g59
NtRp3545
(dp3546
g62
(dp3547
g70
I3
ssg71
g3541
sg64
(lp3548
S'0'
asbasbasbag57
(g73
g59
NtRp3549
(dp3550
g62
(dp3551
sg71
g2894
sg64
(lp3552
g57
(g78
g59
NtRp3553
(dp3554
g62
(dp3555
g82
g83
ssg71
g3549
sg64
(lp3556
S'mod_wsgi.listener_host'
p3557
asbag57
(g78
g59
NtRp3558
(dp3559
g62
(dp3560
g89
g90
ssg71
g3549
sg64
(lp3561
S':'
asbag57
(g78
g59
NtRp3562
(dp3563
g62
(dp3564
sg71
g3549
sg64
(lp3565
g57
(g58
g59
NtRp3566
(dp3567
g62
(dp3568
g70
I3
ssg71
g3562
sg64
(lp3569
S''
asbasbasbag57
(g73
g59
NtRp3570
(dp3571
g62
(dp3572
sg71
g2894
sg64
(lp3573
g57
(g78
g59
NtRp3574
(dp3575
g62
(dp3576
g82
g83
ssg71
g3570
sg64
(lp3577
S'mod_wsgi.listener_port'
p3578
asbag57
(g78
g59
NtRp3579
(dp3580
g62
(dp3581
g89
g90
ssg71
g3570
sg64
(lp3582
S':'
asbag57
(g78
g59
NtRp3583
(dp3584
g62
(dp3585
sg71
g3570
sg64
(lp3586
g57
(g58
g59
NtRp3587
(dp3588
g62
(dp3589
g70
I3
ssg71
g3583
sg64
(lp3590
g1531
asbasbasbag57
(g73
g59
NtRp3591
(dp3592
g62
(dp3593
sg71
g2894
sg64
(lp3594
g57
(g78
g59
NtRp3595
(dp3596
g62
(dp3597
g82
g83
ssg71
g3591
sg64
(lp3598
S'mod_wsgi.process_group'
p3599
asbag57
(g78
g59
NtRp3600
(dp3601
g62
(dp3602
g89
g90
ssg71
g3591
sg64
(lp3603
S':'
asbag57
(g78
g59
NtRp3604
(dp3605
g62
(dp3606
sg71
g3591
sg64
(lp3607
g57
(g58
g59
NtRp3608
(dp3609
g62
(dp3610
g70
I3
ssg71
g3604
sg64
(lp3611
S''
asbasbasbag57
(g73
g59
NtRp3612
(dp3613
g62
(dp3614
sg71
g2894
sg64
(lp3615
g57
(g78
g59
NtRp3616
(dp3617
g62
(dp3618
g82
g83
ssg71
g3612
sg64
(lp3619
S'mod_wsgi.request_handler'
p3620
asbag57
(g78
g59
NtRp3621
(dp3622
g62
(dp3623
g89
g90
ssg71
g3612
sg64
(lp3624
S':'
asbag57
(g78
g59
NtRp3625
(dp3626
g62
(dp3627
sg71
g3612
sg64
(lp3628
g57
(g58
g59
NtRp3629
(dp3630
g62
(dp3631
g70
I3
ssg71
g3625
sg64
(lp3632
g1574
asbasbasbag57
(g73
g59
NtRp3633
(dp3634
g62
(dp3635
sg71
g2894
sg64
(lp3636
g57
(g78
g59
NtRp3637
(dp3638
g62
(dp3639
g82
g83
ssg71
g3633
sg64
(lp3640
S'mod_wsgi.script_reloading'
p3641
asbag57
(g78
g59
NtRp3642
(dp3643
g62
(dp3644
g89
g90
ssg71
g3633
sg64
(lp3645
S':'
asbag57
(g78
g59
NtRp3646
(dp3647
g62
(dp3648
sg71
g3633
sg64
(lp3649
g57
(g58
g59
NtRp3650
(dp3651
g62
(dp3652
g70
I3
ssg71
g3646
sg64
(lp3653
S'1'
asbasbasbag57
(g73
g59
NtRp3654
(dp3655
g62
(dp3656
sg71
g2894
sg64
(lp3657
g57
(g78
g59
NtRp3658
(dp3659
g62
(dp3660
g82
g83
ssg71
g3654
sg64
(lp3661
S'mod_wsgi.version'
p3662
asbag57
(g78
g59
NtRp3663
(dp3664
g62
(dp3665
g89
g90
ssg71
g3654
sg64
(lp3666
S':'
asbag57
(g78
g59
NtRp3667
(dp3668
g62
(dp3669
sg71
g3654
sg64
(lp3670
g57
(g58
g59
NtRp3671
(dp3672
g62
(dp3673
g70
I3
ssg71
g3667
sg64
(lp3674
g57
(g66
g59
NtRp3675
(dp3676
g62
(dp3677
g70
I2
ssg71
Nsg64
(lp3678
g57
(g73
g59
NtRp3679
(dp3680
g62
(dp3681
sg71
g3675
sg64
(lp3682
g57
(g78
g59
NtRp3683
(dp3684
g62
(dp3685
sg71
g3679
sg64
(lp3686
g57
(g58
g59
NtRp3687
(dp3688
g62
(dp3689
g70
I2
ssg71
g3683
sg64
(lp3690
S'3'
asbasbasbag57
(g73
g59
NtRp3691
(dp3692
g62
(dp3693
sg71
g3675
sg64
(lp3694
g57
(g78
g59
NtRp3695
(dp3696
g62
(dp3697
sg71
g3691
sg64
(lp3698
g57
(g58
g59
NtRp3699
(dp3700
g62
(dp3701
g70
I2
ssg71
g3695
sg64
(lp3702
S'3'
asbasbasbasbasbasbasbag57
(g73
g59
NtRp3703
(dp3704
g62
(dp3705
sg71
g2894
sg64
(lp3706
g57
(g78
g59
NtRp3707
(dp3708
g62
(dp3709
g82
g83
ssg71
g3703
sg64
(lp3710
S'wsgi.errors'
p3711
asbag57
(g78
g59
NtRp3712
(dp3713
g62
(dp3714
g89
g90
ssg71
g3703
sg64
(lp3715
S':'
asbag57
(g78
g59
NtRp3716
(dp3717
g62
(dp3718
sg71
g3703
sg64
(lp3719
g57
(g58
g59
NtRp3720
(dp3721
g62
(dp3722
g70
I3
ssg71
g3716
sg64
(lp3723
S'<mod_wsgi.Log object at 0x1105de070>'
p3724
asbasbasbag57
(g73
g59
NtRp3725
(dp3726
g62
(dp3727
sg71
g2894
sg64
(lp3728
g57
(g78
g59
NtRp3729
(dp3730
g62
(dp3731
g82
g83
ssg71
g3725
sg64
(lp3732
S'wsgi.file_wrapper'
p3733
asbag57
(g78
g59
NtRp3734
(dp3735
g62
(dp3736
g89
g90
ssg71
g3725
sg64
(lp3737
S':'
asbag57
(g78
g59
NtRp3738
(dp3739
g62
(dp3740
sg71
g3725
sg64
(lp3741
g57
(g58
g59
NtRp3742
(dp3743
g62
(dp3744
g70
I3
ssg71
g3738
sg64
(lp3745
S'<built-in method file_wrapper of mod_wsgi.Adapter object at 0x10fdb2d50>'
p3746
asbasbasbag57
(g73
g59
NtRp3747
(dp3748
g62
(dp3749
sg71
g2894
sg64
(lp3750
g57
(g78
g59
NtRp3751
(dp3752
g62
(dp3753
g82
g83
ssg71
g3747
sg64
(lp3754
S'wsgi.input'
p3755
asbag57
(g78
g59
NtRp3756
(dp3757
g62
(dp3758
g89
g90
ssg71
g3747
sg64
(lp3759
S':'
asbag57
(g78
g59
NtRp3760
(dp3761
g62
(dp3762
sg71
g3747
sg64
(lp3763
g57
(g58
g59
NtRp3764
(dp3765
g62
(dp3766
g70
I3
ssg71
g3760
sg64
(lp3767
S'<cStringIO.StringO object at 0x110643f10>'
p3768
asbasbasbag57
(g73
g59
NtRp3769
(dp3770
g62
(dp3771
sg71
g2894
sg64
(lp3772
g57
(g78
g59
NtRp3773
(dp3774
g62
(dp3775
g82
g83
ssg71
g3769
sg64
(lp3776
S'wsgi.multiprocess'
p3777
asbag57
(g78
g59
NtRp3778
(dp3779
g62
(dp3780
g89
g90
ssg71
g3769
sg64
(lp3781
S':'
asbag57
(g78
g59
NtRp3782
(dp3783
g62
(dp3784
sg71
g3769
sg64
(lp3785
g57
(g58
g59
NtRp3786
(dp3787
g62
(dp3788
g70
I3
ssg71
g3782
sg64
(lp3789
g2189
asbasbasbag57
(g73
g59
NtRp3790
(dp3791
g62
(dp3792
sg71
g2894
sg64
(lp3793
g57
(g78
g59
NtRp3794
(dp3795
g62
(dp3796
g82
g83
ssg71
g3790
sg64
(lp3797
S'wsgi.multithread'
p3798
asbag57
(g78
g59
NtRp3799
(dp3800
g62
(dp3801
g89
g90
ssg71
g3790
sg64
(lp3802
S':'
asbag57
(g78
g59
NtRp3803
(dp3804
g62
(dp3805
sg71
g3790
sg64
(lp3806
g57
(g58
g59
NtRp3807
(dp3808
g62
(dp3809
g70
I3
ssg71
g3803
sg64
(lp3810
g100
asbasbasbag57
(g73
g59
NtRp3811
(dp3812
g62
(dp3813
sg71
g2894
sg64
(lp3814
g57
(g78
g59
NtRp3815
(dp3816
g62
(dp3817
g82
g83
ssg71
g3811
sg64
(lp3818
S'wsgi.run_once'
p3819
asbag57
(g78
g59
NtRp3820
(dp3821
g62
(dp3822
g89
g90
ssg71
g3811
sg64
(lp3823
S':'
asbag57
(g78
g59
NtRp3824
(dp3825
g62
(dp3826
sg71
g3811
sg64
(lp3827
g57
(g58
g59
NtRp3828
(dp3829
g62
(dp3830
g70
I3
ssg71
g3824
sg64
(lp3831
g100
asbasbasbag57
(g73
g59
NtRp3832
(dp3833
g62
(dp3834
sg71
g2894
sg64
(lp3835
g57
(g78
g59
NtRp3836
(dp3837
g62
(dp3838
g82
g83
ssg71
g3832
sg64
(lp3839
S'wsgi.url_scheme'
p3840
asbag57
(g78
g59
NtRp3841
(dp3842
g62
(dp3843
g89
g90
ssg71
g3832
sg64
(lp3844
S':'
asbag57
(g78
g59
NtRp3845
(dp3846
g62
(dp3847
sg71
g3832
sg64
(lp3848
g57
(g58
g59
NtRp3849
(dp3850
g62
(dp3851
g70
I3
ssg71
g3845
sg64
(lp3852
g2253
asbasbasbag57
(g73
g59
NtRp3853
(dp3854
g62
(dp3855
sg71
g2894
sg64
(lp3856
g57
(g78
g59
NtRp3857
(dp3858
g62
(dp3859
g82
g83
ssg71
g3853
sg64
(lp3860
S'wsgi.version'
p3861
asbag57
(g78
g59
NtRp3862
(dp3863
g62
(dp3864
g89
g90
ssg71
g3853
sg64
(lp3865
S':'
asbag57
(g78
g59
NtRp3866
(dp3867
g62
(dp3868
sg71
g3853
sg64
(lp3869
g57
(g58
g59
NtRp3870
(dp3871
g62
(dp3872
g70
I3
ssg71
g3866
sg64
(lp3873
S'1'
asbasbasbasbasbasbasbasbasbasbasbasbasbsS'frames'
p3874
(lp3875
(dp3876
S'file'
p3877
S'/Users/emir/Documents/beardcode/web2py/gluon/restricted.py'
p3878
sS'dump'
p3879
(dp3880
S'environment'
p3881
S"{'A': <class 'gluon.html.A'>, 'Auth': <class 'gluon.tools.Auth'>, 'B': <class 'gluon.html.B'>, 'BEAUTIFY': <class 'gluon.html.BEAUTIFY'>, 'BODY': <class 'gluon.html.BODY'>, 'BR': <class 'gluon.html.BR'>, 'BUTTON': <class 'gluon.html.BUTTON'>, 'CAT': <class 'gluon.html.CAT'>, 'CENTER': <class 'gluon.html.CENTER'>, 'CLEANUP': <class 'gluon.validators.CLEANUP'>, ...}"
p3882
sS'ccode'
p3883
S'<code object <module> at 0x110958f30, file "/Use...tions/contador/views/default/index.html", line 1>'
p3884
ssS'lnum'
p3885
I205
sS'lines'
p3886
(dp3887
I200
S'    try:'
p3888
sI201
S'        if type(code) == types.CodeType:'
p3889
sI202
S'            ccode = code'
p3890
sI203
S'        else:'
p3891
sI204
S'            ccode = compile2(code,layer)'
p3892
sI205
S'        exec ccode in environment'
p3893
sI206
S'    except HTTP:'
p3894
sI207
S'        raise'
p3895
sI208
S'    except RestrictedError:'
p3896
sI209
S'        # do not encapsulate (obfuscate) the original RestrictedError'
p3897
ssS'call'
p3898
S'(code=r"response.write(\'<html>\\n<head>\\n  <title>Contado...rdcode</footer>\\n</body>\\n</html>\', escape=False)", environment={\'A\': <class \'gluon.html.A\'>, \'Auth\': <class \'gluon.tools.Auth\'>, \'B\': <class \'gluon.html.B\'>, \'BEAUTIFY\': <class \'gluon.html.BEAUTIFY\'>, \'BODY\': <class \'gluon.html.BODY\'>, \'BR\': <class \'gluon.html.BR\'>, \'BUTTON\': <class \'gluon.html.BUTTON\'>, \'CAT\': <class \'gluon.html.CAT\'>, \'CENTER\': <class \'gluon.html.CENTER\'>, \'CLEANUP\': <class \'gluon.validators.CLEANUP\'>, ...}, layer=\'/Users/emir/Documents/beardcode/web2py/applications/contador/views/default/index.html\')'
p3899
sS'func'
p3900
S'restricted'
p3901
sa(dp3902
g3877
S'/Users/emir/Documents/beardcode/web2py/applications/contador/views/default/index.html'
p3903
sg3879
(dp3904
S'head'
p3905
S'undefined'
p3906
ssg3885
I2
sg3886
(dp3907
I1
S'response.write(\'<html>\\n<head>\\n  <title>Contador</title>\\n  <style type="text/css">\\n\\n  </style>\\n</head>\\n<body>\\n  <header>\\n    <h1>Contador de visitas</h1>\\n  </header>\\n  <section>\\n    Numero de visitas: \', escape=False)'
p3908
sI2
S'response.write(nv)'
p3909
sI3
S"response.write('\\n  </section>\\n  <footer>beardcode</footer>\\n</body>\\n</html>', escape=False)"
p3910
ssg3898
S'()'
p3911
sg3900
S'<module>'
p3912
sasS'pyver'
p3913
S'Python 2.6.7: /usr/bin/python'
p3914
sS'session'
p3915
g57
(g58
g59
NtRp3916
(dp3917
g62
(dp3918
sg64
(lp3919
g57
(g66
g59
NtRp3920
(dp3921
g62
(dp3922
g70
I5
ssg71
Nsg64
(lp3923
sbasbsS'etype'
p3924
S"<type 'exceptions.NameError'>"
p3925
sS'date'
p3926
S'Fri Aug  3 10:42:17 2012'
p3927
sS'response'
p3928
g57
(g58
g59
NtRp3929
(dp3930
g62
(dp3931
sg64
(lp3932
g57
(g66
g59
NtRp3933
(dp3934
g62
(dp3935
g70
I5
ssg71
Nsg64
(lp3936
g57
(g73
g59
NtRp3937
(dp3938
g62
(dp3939
sg71
g3933
sg64
(lp3940
g57
(g78
g59
NtRp3941
(dp3942
g62
(dp3943
g82
g83
ssg71
g3937
sg64
(lp3944
g155
asbag57
(g78
g59
NtRp3945
(dp3946
g62
(dp3947
g89
g90
ssg71
g3937
sg64
(lp3948
S':'
asbag57
(g78
g59
NtRp3949
(dp3950
g62
(dp3951
sg71
g3937
sg64
(lp3952
g57
(g58
g59
NtRp3953
(dp3954
g62
(dp3955
g70
I5
ssg71
g3949
sg64
(lp3956
S'<cStringIO.StringO object at 0x1106438b8>'
p3957
asbasbasbag57
(g73
g59
NtRp3958
(dp3959
g62
(dp3960
sg71
g3933
sg64
(lp3961
g57
(g78
g59
NtRp3962
(dp3963
g62
(dp3964
g82
g83
ssg71
g3958
sg64
(lp3965
g221
asbag57
(g78
g59
NtRp3966
(dp3967
g62
(dp3968
g89
g90
ssg71
g3958
sg64
(lp3969
S':'
asbag57
(g78
g59
NtRp3970
(dp3971
g62
(dp3972
sg71
g3958
sg64
(lp3973
g57
(g58
g59
NtRp3974
(dp3975
g62
(dp3976
g70
I5
ssg71
g3970
sg64
(lp3977
g57
(g66
g59
NtRp3978
(dp3979
g62
(dp3980
g70
I4
ssg71
Nsg64
(lp3981
g57
(g73
g59
NtRp3982
(dp3983
g62
(dp3984
sg71
g3978
sg64
(lp3985
g57
(g78
g59
NtRp3986
(dp3987
g62
(dp3988
g82
g83
ssg71
g3982
sg64
(lp3989
S'session_id_contador'
p3990
asbag57
(g78
g59
NtRp3991
(dp3992
g62
(dp3993
g89
g90
ssg71
g3982
sg64
(lp3994
S':'
asbag57
(g78
g59
NtRp3995
(dp3996
g62
(dp3997
sg71
g3982
sg64
(lp3998
g57
(g58
g59
NtRp3999
(dp4000
g62
(dp4001
g70
I4
ssg71
g3995
sg64
(lp4002
g57
(g66
g59
NtRp4003
(dp4004
g62
(dp4005
g70
I3
ssg71
Nsg64
(lp4006
g57
(g73
g59
NtRp4007
(dp4008
g62
(dp4009
sg71
g4003
sg64
(lp4010
g57
(g78
g59
NtRp4011
(dp4012
g62
(dp4013
g82
g83
ssg71
g4007
sg64
(lp4014
g271
asbag57
(g78
g59
NtRp4015
(dp4016
g62
(dp4017
g89
g90
ssg71
g4007
sg64
(lp4018
S':'
asbag57
(g78
g59
NtRp4019
(dp4020
g62
(dp4021
sg71
g4007
sg64
(lp4022
g57
(g58
g59
NtRp4023
(dp4024
g62
(dp4025
g70
I3
ssg71
g4019
sg64
(lp4026
S''
asbasbasbag57
(g73
g59
NtRp4027
(dp4028
g62
(dp4029
sg71
g4003
sg64
(lp4030
g57
(g78
g59
NtRp4031
(dp4032
g62
(dp4033
g82
g83
ssg71
g4027
sg64
(lp4034
g292
asbag57
(g78
g59
NtRp4035
(dp4036
g62
(dp4037
g89
g90
ssg71
g4027
sg64
(lp4038
S':'
asbag57
(g78
g59
NtRp4039
(dp4040
g62
(dp4041
sg71
g4027
sg64
(lp4042
g57
(g58
g59
NtRp4043
(dp4044
g62
(dp4045
g70
I3
ssg71
g4039
sg64
(lp4046
S''
asbasbasbag57
(g73
g59
NtRp4047
(dp4048
g62
(dp4049
sg71
g4003
sg64
(lp4050
g57
(g78
g59
NtRp4051
(dp4052
g62
(dp4053
g82
g83
ssg71
g4047
sg64
(lp4054
g313
asbag57
(g78
g59
NtRp4055
(dp4056
g62
(dp4057
g89
g90
ssg71
g4047
sg64
(lp4058
S':'
asbag57
(g78
g59
NtRp4059
(dp4060
g62
(dp4061
sg71
g4047
sg64
(lp4062
g57
(g58
g59
NtRp4063
(dp4064
g62
(dp4065
g70
I3
ssg71
g4059
sg64
(lp4066
S''
asbasbasbag57
(g73
g59
NtRp4067
(dp4068
g62
(dp4069
sg71
g4003
sg64
(lp4070
g57
(g78
g59
NtRp4071
(dp4072
g62
(dp4073
g82
g83
ssg71
g4067
sg64
(lp4074
g334
asbag57
(g78
g59
NtRp4075
(dp4076
g62
(dp4077
g89
g90
ssg71
g4067
sg64
(lp4078
S':'
asbag57
(g78
g59
NtRp4079
(dp4080
g62
(dp4081
sg71
g4067
sg64
(lp4082
g57
(g58
g59
NtRp4083
(dp4084
g62
(dp4085
g70
I3
ssg71
g4079
sg64
(lp4086
S''
asbasbasbag57
(g73
g59
NtRp4087
(dp4088
g62
(dp4089
sg71
g4003
sg64
(lp4090
g57
(g78
g59
NtRp4091
(dp4092
g62
(dp4093
g82
g83
ssg71
g4087
sg64
(lp4094
g355
asbag57
(g78
g59
NtRp4095
(dp4096
g62
(dp4097
g89
g90
ssg71
g4087
sg64
(lp4098
S':'
asbag57
(g78
g59
NtRp4099
(dp4100
g62
(dp4101
sg71
g4087
sg64
(lp4102
g57
(g58
g59
NtRp4103
(dp4104
g62
(dp4105
g70
I3
ssg71
g4099
sg64
(lp4106
S''
asbasbasbag57
(g73
g59
NtRp4107
(dp4108
g62
(dp4109
sg71
g4003
sg64
(lp4110
g57
(g78
g59
NtRp4111
(dp4112
g62
(dp4113
g82
g83
ssg71
g4107
sg64
(lp4114
g376
asbag57
(g78
g59
NtRp4115
(dp4116
g62
(dp4117
g89
g90
ssg71
g4107
sg64
(lp4118
S':'
asbag57
(g78
g59
NtRp4119
(dp4120
g62
(dp4121
sg71
g4107
sg64
(lp4122
g57
(g58
g59
NtRp4123
(dp4124
g62
(dp4125
g70
I3
ssg71
g4119
sg64
(lp4126
S'/'
asbasbasbag57
(g73
g59
NtRp4127
(dp4128
g62
(dp4129
sg71
g4003
sg64
(lp4130
g57
(g78
g59
NtRp4131
(dp4132
g62
(dp4133
g82
g83
ssg71
g4127
sg64
(lp4134
g397
asbag57
(g78
g59
NtRp4135
(dp4136
g62
(dp4137
g89
g90
ssg71
g4127
sg64
(lp4138
S':'
asbag57
(g78
g59
NtRp4139
(dp4140
g62
(dp4141
sg71
g4127
sg64
(lp4142
g57
(g58
g59
NtRp4143
(dp4144
g62
(dp4145
g70
I3
ssg71
g4139
sg64
(lp4146
S''
asbasbasbag57
(g73
g59
NtRp4147
(dp4148
g62
(dp4149
sg71
g4003
sg64
(lp4150
g57
(g78
g59
NtRp4151
(dp4152
g62
(dp4153
g82
g83
ssg71
g4147
sg64
(lp4154
g418
asbag57
(g78
g59
NtRp4155
(dp4156
g62
(dp4157
g89
g90
ssg71
g4147
sg64
(lp4158
S':'
asbag57
(g78
g59
NtRp4159
(dp4160
g62
(dp4161
sg71
g4147
sg64
(lp4162
g57
(g58
g59
NtRp4163
(dp4164
g62
(dp4165
g70
I3
ssg71
g4159
sg64
(lp4166
S''
asbasbasbasbasbasbasbasbasbasbasbag57
(g73
g59
NtRp4167
(dp4168
g62
(dp4169
sg71
g3933
sg64
(lp4170
g57
(g78
g59
NtRp4171
(dp4172
g62
(dp4173
g82
g83
ssg71
g4167
sg64
(lp4174
S'delimiters'
p4175
asbag57
(g78
g59
NtRp4176
(dp4177
g62
(dp4178
g89
g90
ssg71
g4167
sg64
(lp4179
S':'
asbag57
(g78
g59
NtRp4180
(dp4181
g62
(dp4182
sg71
g4167
sg64
(lp4183
g57
(g58
g59
NtRp4184
(dp4185
g62
(dp4186
g70
I5
ssg71
g4180
sg64
(lp4187
g57
(g66
g59
NtRp4188
(dp4189
g62
(dp4190
g70
I4
ssg71
Nsg64
(lp4191
g57
(g73
g59
NtRp4192
(dp4193
g62
(dp4194
sg71
g4188
sg64
(lp4195
g57
(g78
g59
NtRp4196
(dp4197
g62
(dp4198
sg71
g4192
sg64
(lp4199
g57
(g58
g59
NtRp4200
(dp4201
g62
(dp4202
g70
I4
ssg71
g4196
sg64
(lp4203
S'{{'
p4204
asbasbasbag57
(g73
g59
NtRp4205
(dp4206
g62
(dp4207
sg71
g4188
sg64
(lp4208
g57
(g78
g59
NtRp4209
(dp4210
g62
(dp4211
sg71
g4205
sg64
(lp4212
g57
(g58
g59
NtRp4213
(dp4214
g62
(dp4215
g70
I4
ssg71
g4209
sg64
(lp4216
S'}}'
p4217
asbasbasbasbasbasbasbag57
(g73
g59
NtRp4218
(dp4219
g62
(dp4220
sg71
g3933
sg64
(lp4221
g57
(g78
g59
NtRp4222
(dp4223
g62
(dp4224
g82
g83
ssg71
g4218
sg64
(lp4225
S'files'
p4226
asbag57
(g78
g59
NtRp4227
(dp4228
g62
(dp4229
g89
g90
ssg71
g4218
sg64
(lp4230
S':'
asbag57
(g78
g59
NtRp4231
(dp4232
g62
(dp4233
sg71
g4218
sg64
(lp4234
g57
(g58
g59
NtRp4235
(dp4236
g62
(dp4237
g70
I5
ssg71
g4231
sg64
(lp4238
g57
(g66
g59
NtRp4239
(dp4240
g62
(dp4241
g70
I4
ssg71
Nsg64
(lp4242
sbasbasbasbag57
(g73
g59
NtRp4243
(dp4244
g62
(dp4245
sg71
g3933
sg64
(lp4246
g57
(g78
g59
NtRp4247
(dp4248
g62
(dp4249
g82
g83
ssg71
g4243
sg64
(lp4250
S'flash'
p4251
asbag57
(g78
g59
NtRp4252
(dp4253
g62
(dp4254
g89
g90
ssg71
g4243
sg64
(lp4255
S':'
asbag57
(g78
g59
NtRp4256
(dp4257
g62
(dp4258
sg71
g4243
sg64
(lp4259
g57
(g58
g59
NtRp4260
(dp4261
g62
(dp4262
g70
I5
ssg71
g4256
sg64
(lp4263
S'Welcome to web2py!'
p4264
asbasbasbag57
(g73
g59
NtRp4265
(dp4266
g62
(dp4267
sg71
g3933
sg64
(lp4268
g57
(g78
g59
NtRp4269
(dp4270
g62
(dp4271
g82
g83
ssg71
g4265
sg64
(lp4272
S'generic_patterns'
p4273
asbag57
(g78
g59
NtRp4274
(dp4275
g62
(dp4276
g89
g90
ssg71
g4265
sg64
(lp4277
S':'
asbag57
(g78
g59
NtRp4278
(dp4279
g62
(dp4280
sg71
g4265
sg64
(lp4281
g57
(g58
g59
NtRp4282
(dp4283
g62
(dp4284
g70
I5
ssg71
g4278
sg64
(lp4285
g57
(g66
g59
NtRp4286
(dp4287
g62
(dp4288
g70
I4
ssg71
Nsg64
(lp4289
g57
(g73
g59
NtRp4290
(dp4291
g62
(dp4292
sg71
g4286
sg64
(lp4293
g57
(g78
g59
NtRp4294
(dp4295
g62
(dp4296
sg71
g4290
sg64
(lp4297
g57
(g58
g59
NtRp4298
(dp4299
g62
(dp4300
g70
I4
ssg71
g4294
sg64
(lp4301
S'*'
asbasbasbasbasbasbasbag57
(g73
g59
NtRp4302
(dp4303
g62
(dp4304
sg71
g3933
sg64
(lp4305
g57
(g78
g59
NtRp4306
(dp4307
g62
(dp4308
g82
g83
ssg71
g4302
sg64
(lp4309
S'headers'
p4310
asbag57
(g78
g59
NtRp4311
(dp4312
g62
(dp4313
g89
g90
ssg71
g4302
sg64
(lp4314
S':'
asbag57
(g78
g59
NtRp4315
(dp4316
g62
(dp4317
sg71
g4302
sg64
(lp4318
g57
(g58
g59
NtRp4319
(dp4320
g62
(dp4321
g70
I5
ssg71
g4315
sg64
(lp4322
g57
(g66
g59
NtRp4323
(dp4324
g62
(dp4325
g70
I4
ssg71
Nsg64
(lp4326
g57
(g73
g59
NtRp4327
(dp4328
g62
(dp4329
sg71
g4323
sg64
(lp4330
g57
(g78
g59
NtRp4331
(dp4332
g62
(dp4333
g82
g83
ssg71
g4327
sg64
(lp4334
S'Cache-Control'
p4335
asbag57
(g78
g59
NtRp4336
(dp4337
g62
(dp4338
g89
g90
ssg71
g4327
sg64
(lp4339
S':'
asbag57
(g78
g59
NtRp4340
(dp4341
g62
(dp4342
sg71
g4327
sg64
(lp4343
g57
(g58
g59
NtRp4344
(dp4345
g62
(dp4346
g70
I4
ssg71
g4340
sg64
(lp4347
S'no-store, no-cache, must-revalidate, post-check=0, pre-check=0'
p4348
asbasbasbag57
(g73
g59
NtRp4349
(dp4350
g62
(dp4351
sg71
g4323
sg64
(lp4352
g57
(g78
g59
NtRp4353
(dp4354
g62
(dp4355
g82
g83
ssg71
g4349
sg64
(lp4356
S'Content-Type'
p4357
asbag57
(g78
g59
NtRp4358
(dp4359
g62
(dp4360
g89
g90
ssg71
g4349
sg64
(lp4361
S':'
asbag57
(g78
g59
NtRp4362
(dp4363
g62
(dp4364
sg71
g4349
sg64
(lp4365
g57
(g58
g59
NtRp4366
(dp4367
g62
(dp4368
g70
I4
ssg71
g4362
sg64
(lp4369
S'text/html; charset=utf-8'
p4370
asbasbasbag57
(g73
g59
NtRp4371
(dp4372
g62
(dp4373
sg71
g4323
sg64
(lp4374
g57
(g78
g59
NtRp4375
(dp4376
g62
(dp4377
g82
g83
ssg71
g4371
sg64
(lp4378
S'Expires'
p4379
asbag57
(g78
g59
NtRp4380
(dp4381
g62
(dp4382
g89
g90
ssg71
g4371
sg64
(lp4383
S':'
asbag57
(g78
g59
NtRp4384
(dp4385
g62
(dp4386
sg71
g4371
sg64
(lp4387
g57
(g58
g59
NtRp4388
(dp4389
g62
(dp4390
g70
I4
ssg71
g4384
sg64
(lp4391
S'Fri, 03 Aug 2012 15:42:17 GMT'
p4392
asbasbasbag57
(g73
g59
NtRp4393
(dp4394
g62
(dp4395
sg71
g4323
sg64
(lp4396
g57
(g78
g59
NtRp4397
(dp4398
g62
(dp4399
g82
g83
ssg71
g4393
sg64
(lp4400
S'Pragma'
p4401
asbag57
(g78
g59
NtRp4402
(dp4403
g62
(dp4404
g89
g90
ssg71
g4393
sg64
(lp4405
S':'
asbag57
(g78
g59
NtRp4406
(dp4407
g62
(dp4408
sg71
g4393
sg64
(lp4409
g57
(g58
g59
NtRp4410
(dp4411
g62
(dp4412
g70
I4
ssg71
g4406
sg64
(lp4413
S'no-cache'
p4414
asbasbasbag57
(g73
g59
NtRp4415
(dp4416
g62
(dp4417
sg71
g4323
sg64
(lp4418
g57
(g78
g59
NtRp4419
(dp4420
g62
(dp4421
g82
g83
ssg71
g4415
sg64
(lp4422
S'X-Powered-By'
p4423
asbag57
(g78
g59
NtRp4424
(dp4425
g62
(dp4426
g89
g90
ssg71
g4415
sg64
(lp4427
S':'
asbag57
(g78
g59
NtRp4428
(dp4429
g62
(dp4430
sg71
g4415
sg64
(lp4431
g57
(g58
g59
NtRp4432
(dp4433
g62
(dp4434
g70
I4
ssg71
g4428
sg64
(lp4435
S'web2py'
p4436
asbasbasbasbasbasbasbag57
(g73
g59
NtRp4437
(dp4438
g62
(dp4439
sg71
g3933
sg64
(lp4440
g57
(g78
g59
NtRp4441
(dp4442
g62
(dp4443
g82
g83
ssg71
g4437
sg64
(lp4444
S'menu'
p4445
asbag57
(g78
g59
NtRp4446
(dp4447
g62
(dp4448
g89
g90
ssg71
g4437
sg64
(lp4449
S':'
asbag57
(g78
g59
NtRp4450
(dp4451
g62
(dp4452
sg71
g4437
sg64
(lp4453
g57
(g58
g59
NtRp4454
(dp4455
g62
(dp4456
g70
I5
ssg71
g4450
sg64
(lp4457
g57
(g66
g59
NtRp4458
(dp4459
g62
(dp4460
g70
I4
ssg71
Nsg64
(lp4461
g57
(g73
g59
NtRp4462
(dp4463
g62
(dp4464
sg71
g4458
sg64
(lp4465
g57
(g78
g59
NtRp4466
(dp4467
g62
(dp4468
sg71
g4462
sg64
(lp4469
g57
(g58
g59
NtRp4470
(dp4471
g62
(dp4472
g70
I4
ssg71
g4466
sg64
(lp4473
g57
(g66
g59
NtRp4474
(dp4475
g62
(dp4476
g70
I3
ssg71
Nsg64
(lp4477
g57
(g73
g59
NtRp4478
(dp4479
g62
(dp4480
sg71
g4474
sg64
(lp4481
g57
(g78
g59
NtRp4482
(dp4483
g62
(dp4484
sg71
g4478
sg64
(lp4485
g57
(g58
g59
NtRp4486
(dp4487
g62
(dp4488
g70
I3
ssg71
g4482
sg64
(lp4489
cgluon.languages
lazyT_unpickle
p4490
(S't\x04\x00\x00\x00Home'
tRp4491
asbasbasbag57
(g73
g59
NtRp4492
(dp4493
g62
(dp4494
sg71
g4474
sg64
(lp4495
g57
(g78
g59
NtRp4496
(dp4497
g62
(dp4498
sg71
g4492
sg64
(lp4499
g57
(g58
g59
NtRp4500
(dp4501
g62
(dp4502
g70
I3
ssg71
g4496
sg64
(lp4503
g100
asbasbasbag57
(g73
g59
NtRp4504
(dp4505
g62
(dp4506
sg71
g4474
sg64
(lp4507
g57
(g78
g59
NtRp4508
(dp4509
g62
(dp4510
sg71
g4504
sg64
(lp4511
g57
(g58
g59
NtRp4512
(dp4513
g62
(dp4514
g70
I3
ssg71
g4508
sg64
(lp4515
S'/contador/default/index'
p4516
asbasbasbag57
(g73
g59
NtRp4517
(dp4518
g62
(dp4519
sg71
g4474
sg64
(lp4520
g57
(g78
g59
NtRp4521
(dp4522
g62
(dp4523
sg71
g4517
sg64
(lp4524
g57
(g58
g59
NtRp4525
(dp4526
g62
(dp4527
g70
I3
ssg71
g4521
sg64
(lp4528
g57
(g66
g59
NtRp4529
(dp4530
g62
(dp4531
g70
I2
ssg71
Nsg64
(lp4532
sbasbasbasbasbasbasbasbag57
(g73
g59
NtRp4533
(dp4534
g62
(dp4535
sg71
g4458
sg64
(lp4536
g57
(g78
g59
NtRp4537
(dp4538
g62
(dp4539
sg71
g4533
sg64
(lp4540
g57
(g58
g59
NtRp4541
(dp4542
g62
(dp4543
g70
I4
ssg71
g4537
sg64
(lp4544
g57
(g66
g59
NtRp4545
(dp4546
g62
(dp4547
g70
I3
ssg71
Nsg64
(lp4548
g57
(g73
g59
NtRp4549
(dp4550
g62
(dp4551
sg71
g4545
sg64
(lp4552
g57
(g78
g59
NtRp4553
(dp4554
g62
(dp4555
sg71
g4549
sg64
(lp4556
g57
(g58
g59
NtRp4557
(dp4558
g62
(dp4559
g70
I3
ssg71
g4553
sg64
(lp4560
g57
(cgluon.html
SPAN
p4561
g59
NtRp4562
(dp4563
g62
(dp4564
g82
S'color:yellow'
p4565
ssg71
Nsg64
(lp4566
g4436
asbasbasbasbag57
(g73
g59
NtRp4567
(dp4568
g62
(dp4569
sg71
g4545
sg64
(lp4570
g57
(g78
g59
NtRp4571
(dp4572
g62
(dp4573
sg71
g4567
sg64
(lp4574
g57
(g58
g59
NtRp4575
(dp4576
g62
(dp4577
g70
I3
ssg71
g4571
sg64
(lp4578
g100
asbasbasbag57
(g73
g59
NtRp4579
(dp4580
g62
(dp4581
sg71
g4545
sg64
(lp4582
g57
(g78
g59
NtRp4583
(dp4584
g62
(dp4585
sg71
g4579
sg64
(lp4586
g57
(g58
g59
NtRp4587
(dp4588
g62
(dp4589
g70
I3
ssg71
g4583
sg64
(lp4590
S'None'
p4591
asbasbasbag57
(g73
g59
NtRp4592
(dp4593
g62
(dp4594
sg71
g4545
sg64
(lp4595
g57
(g78
g59
NtRp4596
(dp4597
g62
(dp4598
sg71
g4592
sg64
(lp4599
g57
(g58
g59
NtRp4600
(dp4601
g62
(dp4602
g70
I3
ssg71
g4596
sg64
(lp4603
g57
(g66
g59
NtRp4604
(dp4605
g62
(dp4606
g70
I2
ssg71
Nsg64
(lp4607
g57
(g73
g59
NtRp4608
(dp4609
g62
(dp4610
sg71
g4604
sg64
(lp4611
g57
(g78
g59
NtRp4612
(dp4613
g62
(dp4614
sg71
g4608
sg64
(lp4615
g57
(g58
g59
NtRp4616
(dp4617
g62
(dp4618
g70
I2
ssg71
g4612
sg64
(lp4619
g57
(g66
g59
NtRp4620
(dp4621
g62
(dp4622
g70
I1
ssg71
Nsg64
(lp4623
g57
(g73
g59
NtRp4624
(dp4625
g62
(dp4626
sg71
g4620
sg64
(lp4627
g57
(g78
g59
NtRp4628
(dp4629
g62
(dp4630
sg71
g4624
sg64
(lp4631
g57
(g58
g59
NtRp4632
(dp4633
g62
(dp4634
g70
I1
ssg71
g4628
sg64
(lp4635
g4490
(S's\x08\x00\x00\x00My Sites'
tRp4636
asbasbasbag57
(g73
g59
NtRp4637
(dp4638
g62
(dp4639
sg71
g4620
sg64
(lp4640
g57
(g78
g59
NtRp4641
(dp4642
g62
(dp4643
sg71
g4637
sg64
(lp4644
g57
(g58
g59
NtRp4645
(dp4646
g62
(dp4647
g70
I1
ssg71
g4641
sg64
(lp4648
I00
asbasbasbag57
(g73
g59
NtRp4649
(dp4650
g62
(dp4651
sg71
g4620
sg64
(lp4652
g57
(g78
g59
NtRp4653
(dp4654
g62
(dp4655
sg71
g4649
sg64
(lp4656
g57
(g58
g59
NtRp4657
(dp4658
g62
(dp4659
g70
I1
ssg71
g4653
sg64
(lp4660
S'/admin/default/site'
p4661
asbasbasbasbasbasbasbag57
(g73
g59
NtRp4662
(dp4663
g62
(dp4664
sg71
g4604
sg64
(lp4665
g57
(g78
g59
NtRp4666
(dp4667
g62
(dp4668
sg71
g4662
sg64
(lp4669
g57
(g58
g59
NtRp4670
(dp4671
g62
(dp4672
g70
I2
ssg71
g4666
sg64
(lp4673
g57
(g66
g59
NtRp4674
(dp4675
g62
(dp4676
g70
I1
ssg71
Nsg64
(lp4677
g57
(g73
g59
NtRp4678
(dp4679
g62
(dp4680
sg71
g4674
sg64
(lp4681
g57
(g78
g59
NtRp4682
(dp4683
g62
(dp4684
sg71
g4678
sg64
(lp4685
g57
(g58
g59
NtRp4686
(dp4687
g62
(dp4688
g70
I1
ssg71
g4682
sg64
(lp4689
g4490
(S's\x08\x00\x00\x00This App'
tRp4690
asbasbasbag57
(g73
g59
NtRp4691
(dp4692
g62
(dp4693
sg71
g4674
sg64
(lp4694
g57
(g78
g59
NtRp4695
(dp4696
g62
(dp4697
sg71
g4691
sg64
(lp4698
g57
(g58
g59
NtRp4699
(dp4700
g62
(dp4701
g70
I1
ssg71
g4695
sg64
(lp4702
I00
asbasbasbag57
(g73
g59
NtRp4703
(dp4704
g62
(dp4705
sg71
g4674
sg64
(lp4706
g57
(g78
g59
NtRp4707
(dp4708
g62
(dp4709
sg71
g4703
sg64
(lp4710
g57
(g58
g59
NtRp4711
(dp4712
g62
(dp4713
g70
I1
ssg71
g4707
sg64
(lp4714
S'/admin/default/design/contador'
p4715
asbasbasbag57
(g73
g59
NtRp4716
(dp4717
g62
(dp4718
sg71
g4674
sg64
(lp4719
g57
(g78
g59
NtRp4720
(dp4721
g62
(dp4722
sg71
g4716
sg64
(lp4723
g57
(g58
g59
NtRp4724
(dp4725
g62
(dp4726
g70
I1
ssg71
g4720
sg64
(lp4727
(lp4728
(g4490
(S't\x0b\x00\x00\x00Controlador'
tRp4729
I00
S'/admin/default/edit/contador/controllers/default.py'
tp4730
a(g4490
(S't\x05\x00\x00\x00Vista'
tRp4731
I00
S'/admin/default/edit/contador/views/default/index.html'
tp4732
a(g4490
(S's\x12\x00\x00\x00Dise\xc3\xb1o de p\xc3\xa1gina'
tRp4733
I00
S'/admin/default/edit/contador/views/layout.html'
tp4734
a(g4490
(S's\x0e\x00\x00\x00Hoja de estilo'
tRp4735
I00
S'/admin/default/edit/contador/static/css/web2py.css'
tp4736
a(g4490
(S's\x0b\x00\x00\x00Modelo "db"'
tRp4737
I00
S'/admin/default/edit/contador/models/db.py'
tp4738
a(g4490
(S's\r\x00\x00\x00Modelo "menu"'
tRp4739
I00
S'/admin/default/edit/contador/models/menu.py'
tp4740
a(g4490
(S's\r\x00\x00\x00Base de datos'
tRp4741
I00
S'/contador/appadmin/index'
tp4742
a(g4490
(S't\x06\x00\x00\x00Errors'
tRp4743
I00
S'/admin/default/errors/contador'
tp4744
a(g4490
(S's\t\x00\x00\x00Acerca de'
tRp4745
I00
S'/admin/default/about/contador'
tp4746
aasbasbasbasbasbasbasbag57
(g73
g59
NtRp4747
(dp4748
g62
(dp4749
sg71
g4604
sg64
(lp4750
g57
(g78
g59
NtRp4751
(dp4752
g62
(dp4753
sg71
g4747
sg64
(lp4754
g57
(g58
g59
NtRp4755
(dp4756
g62
(dp4757
g70
I2
ssg71
g4751
sg64
(lp4758
g57
(g66
g59
NtRp4759
(dp4760
g62
(dp4761
g70
I1
ssg71
Nsg64
(lp4762
g57
(g73
g59
NtRp4763
(dp4764
g62
(dp4765
sg71
g4759
sg64
(lp4766
g57
(g78
g59
NtRp4767
(dp4768
g62
(dp4769
sg71
g4763
sg64
(lp4770
g57
(g58
g59
NtRp4771
(dp4772
g62
(dp4773
g70
I1
ssg71
g4767
sg64
(lp4774
S'web2py.com'
p4775
asbasbasbag57
(g73
g59
NtRp4776
(dp4777
g62
(dp4778
sg71
g4759
sg64
(lp4779
g57
(g78
g59
NtRp4780
(dp4781
g62
(dp4782
sg71
g4776
sg64
(lp4783
g57
(g58
g59
NtRp4784
(dp4785
g62
(dp4786
g70
I1
ssg71
g4780
sg64
(lp4787
I00
asbasbasbag57
(g73
g59
NtRp4788
(dp4789
g62
(dp4790
sg71
g4759
sg64
(lp4791
g57
(g78
g59
NtRp4792
(dp4793
g62
(dp4794
sg71
g4788
sg64
(lp4795
g57
(g58
g59
NtRp4796
(dp4797
g62
(dp4798
g70
I1
ssg71
g4792
sg64
(lp4799
S'http://www.web2py.com'
p4800
asbasbasbag57
(g73
g59
NtRp4801
(dp4802
g62
(dp4803
sg71
g4759
sg64
(lp4804
g57
(g78
g59
NtRp4805
(dp4806
g62
(dp4807
sg71
g4801
sg64
(lp4808
g57
(g58
g59
NtRp4809
(dp4810
g62
(dp4811
g70
I1
ssg71
g4805
sg64
(lp4812
(lp4813
(g4490
(S't\x08\x00\x00\x00Download'
tRp4814
I00
S'http://www.web2py.com/examples/default/download'
p4815
tp4816
a(g4490
(S't\x07\x00\x00\x00Support'
tRp4817
I00
S'http://www.web2py.com/examples/default/support'
p4818
tp4819
a(g4490
(S't\x04\x00\x00\x00Demo'
tRp4820
I00
S'http://web2py.com/demo_admin'
p4821
tp4822
a(g4490
(S's\x0e\x00\x00\x00Quick Examples'
tRp4823
I00
S'http://web2py.com/examples/default/examples'
p4824
tp4825
a(g4490
(S't\x03\x00\x00\x00FAQ'
tRp4826
I00
S'http://web2py.com/AlterEgo'
p4827
tp4828
a(g4490
(S't\x06\x00\x00\x00Videos'
tRp4829
I00
S'http://www.web2py.com/examples/default/videos/'
p4830
tp4831
a(g4490
(S's\x11\x00\x00\x00Free Applications'
tRp4832
I00
S'http://web2py.com/appliances'
p4833
tp4834
a(g4490
(S't\x07\x00\x00\x00Plugins'
tRp4835
I00
S'http://web2py.com/plugins'
p4836
tp4837
a(g4490
(S't\x07\x00\x00\x00Layouts'
tRp4838
I00
S'http://web2py.com/layouts'
p4839
tp4840
a(g4490
(S't\x07\x00\x00\x00Recipes'
tRp4841
I00
S'http://web2pyslices.com/'
p4842
tp4843
a(g4490
(S't\x08\x00\x00\x00Semantic'
tRp4844
I00
S'http://web2py.com/semantic'
p4845
tp4846
aasbasbasbasbasbasbasbag57
(g73
g59
NtRp4847
(dp4848
g62
(dp4849
sg71
g4604
sg64
(lp4850
g57
(g78
g59
NtRp4851
(dp4852
g62
(dp4853
sg71
g4847
sg64
(lp4854
g57
(g58
g59
NtRp4855
(dp4856
g62
(dp4857
g70
I2
ssg71
g4851
sg64
(lp4858
g57
(g66
g59
NtRp4859
(dp4860
g62
(dp4861
g70
I1
ssg71
Nsg64
(lp4862
g57
(g73
g59
NtRp4863
(dp4864
g62
(dp4865
sg71
g4859
sg64
(lp4866
g57
(g78
g59
NtRp4867
(dp4868
g62
(dp4869
sg71
g4863
sg64
(lp4870
g57
(g58
g59
NtRp4871
(dp4872
g62
(dp4873
g70
I1
ssg71
g4867
sg64
(lp4874
g4490
(S's\x0e\x00\x00\x00Documentaci\xc3\xb3n'
tRp4875
asbasbasbag57
(g73
g59
NtRp4876
(dp4877
g62
(dp4878
sg71
g4859
sg64
(lp4879
g57
(g78
g59
NtRp4880
(dp4881
g62
(dp4882
sg71
g4876
sg64
(lp4883
g57
(g58
g59
NtRp4884
(dp4885
g62
(dp4886
g70
I1
ssg71
g4880
sg64
(lp4887
I00
asbasbasbag57
(g73
g59
NtRp4888
(dp4889
g62
(dp4890
sg71
g4859
sg64
(lp4891
g57
(g78
g59
NtRp4892
(dp4893
g62
(dp4894
sg71
g4888
sg64
(lp4895
g57
(g58
g59
NtRp4896
(dp4897
g62
(dp4898
g70
I1
ssg71
g4892
sg64
(lp4899
S'http://www.web2py.com/book'
p4900
asbasbasbag57
(g73
g59
NtRp4901
(dp4902
g62
(dp4903
sg71
g4859
sg64
(lp4904
g57
(g78
g59
NtRp4905
(dp4906
g62
(dp4907
sg71
g4901
sg64
(lp4908
g57
(g58
g59
NtRp4909
(dp4910
g62
(dp4911
g70
I1
ssg71
g4905
sg64
(lp4912
(lp4913
(g4490
(S't\x07\x00\x00\x00Preface'
tRp4914
I00
S'http://www.web2py.com/book/default/chapter/00'
p4915
tp4916
a(g4490
(S't\x0c\x00\x00\x00Introduction'
tRp4917
I00
S'http://www.web2py.com/book/default/chapter/01'
p4918
tp4919
a(g4490
(S't\x06\x00\x00\x00Python'
tRp4920
I00
S'http://www.web2py.com/book/default/chapter/02'
p4921
tp4922
a(g4490
(S't\x08\x00\x00\x00Overview'
tRp4923
I00
S'http://www.web2py.com/book/default/chapter/03'
p4924
tp4925
a(g4490
(S's\x08\x00\x00\x00The Core'
tRp4926
I00
S'http://www.web2py.com/book/default/chapter/04'
p4927
tp4928
a(g4490
(S's\t\x00\x00\x00The Views'
tRp4929
I00
S'http://www.web2py.com/book/default/chapter/05'
p4930
tp4931
a(g4490
(S's\r\x00\x00\x00Base de datos'
tRp4932
I00
S'http://www.web2py.com/book/default/chapter/06'
p4933
tp4934
a(g4490
(S's\x14\x00\x00\x00Forms and Validators'
tRp4935
I00
S'http://www.web2py.com/book/default/chapter/07'
p4936
tp4937
a(g4490
(S's\r\x00\x00\x00Email and SMS'
tRp4938
I00
S'http://www.web2py.com/book/default/chapter/08'
p4939
tp4940
a(g4490
(S's\x0e\x00\x00\x00Access Control'
tRp4941
I00
S'http://www.web2py.com/book/default/chapter/09'
p4942
tp4943
a(g4490
(S't\x08\x00\x00\x00Services'
tRp4944
I00
S'http://www.web2py.com/book/default/chapter/10'
p4945
tp4946
a(g4490
(S's\x0c\x00\x00\x00Ajax Recipes'
tRp4947
I00
S'http://www.web2py.com/book/default/chapter/11'
p4948
tp4949
a(g4490
(S's\x16\x00\x00\x00Components and Plugins'
tRp4950
I00
S'http://www.web2py.com/book/default/chapter/12'
p4951
tp4952
a(g4490
(S's\x12\x00\x00\x00Deployment Recipes'
tRp4953
I00
S'http://www.web2py.com/book/default/chapter/13'
p4954
tp4955
a(g4490
(S's\r\x00\x00\x00Other Recipes'
tRp4956
I00
S'http://www.web2py.com/book/default/chapter/14'
p4957
tp4958
a(g4490
(S's\r\x00\x00\x00Buy this book'
tRp4959
I00
S'http://stores.lulu.com/web2py'
p4960
tp4961
aasbasbasbasbasbasbasbag57
(g73
g59
NtRp4962
(dp4963
g62
(dp4964
sg71
g4604
sg64
(lp4965
g57
(g78
g59
NtRp4966
(dp4967
g62
(dp4968
sg71
g4962
sg64
(lp4969
g57
(g58
g59
NtRp4970
(dp4971
g62
(dp4972
g70
I2
ssg71
g4966
sg64
(lp4973
g57
(g66
g59
NtRp4974
(dp4975
g62
(dp4976
g70
I1
ssg71
Nsg64
(lp4977
g57
(g73
g59
NtRp4978
(dp4979
g62
(dp4980
sg71
g4974
sg64
(lp4981
g57
(g78
g59
NtRp4982
(dp4983
g62
(dp4984
sg71
g4978
sg64
(lp4985
g57
(g58
g59
NtRp4986
(dp4987
g62
(dp4988
g70
I1
ssg71
g4982
sg64
(lp4989
g4490
(S't\t\x00\x00\x00Community'
tRp4990
asbasbasbag57
(g73
g59
NtRp4991
(dp4992
g62
(dp4993
sg71
g4974
sg64
(lp4994
g57
(g78
g59
NtRp4995
(dp4996
g62
(dp4997
sg71
g4991
sg64
(lp4998
g57
(g58
g59
NtRp4999
(dp5000
g62
(dp5001
g70
I1
ssg71
g4995
sg64
(lp5002
I00
asbasbasbag57
(g73
g59
NtRp5003
(dp5004
g62
(dp5005
sg71
g4974
sg64
(lp5006
g57
(g78
g59
NtRp5007
(dp5008
g62
(dp5009
sg71
g5003
sg64
(lp5010
g57
(g58
g59
NtRp5011
(dp5012
g62
(dp5013
g70
I1
ssg71
g5007
sg64
(lp5014
Nasbasbasbag57
(g73
g59
NtRp5015
(dp5016
g62
(dp5017
sg71
g4974
sg64
(lp5018
g57
(g78
g59
NtRp5019
(dp5020
g62
(dp5021
sg71
g5015
sg64
(lp5022
g57
(g58
g59
NtRp5023
(dp5024
g62
(dp5025
g70
I1
ssg71
g5019
sg64
(lp5026
(lp5027
(g4490
(S't\x06\x00\x00\x00Groups'
tRp5028
I00
S'http://www.web2py.com/examples/default/usergroups'
p5029
tp5030
a(g4490
(S't\x07\x00\x00\x00Twitter'
tRp5031
I00
S'http://twitter.com/web2py'
p5032
tp5033
a(g4490
(S's\t\x00\x00\x00Live Chat'
tRp5034
I00
S'http://webchat.freenode.net/?channels=web2py'
p5035
tp5036
aasbasbasbasbasbasbasbag57
(g73
g59
NtRp5037
(dp5038
g62
(dp5039
sg71
g4604
sg64
(lp5040
g57
(g78
g59
NtRp5041
(dp5042
g62
(dp5043
sg71
g5037
sg64
(lp5044
g57
(g58
g59
NtRp5045
(dp5046
g62
(dp5047
g70
I2
ssg71
g5041
sg64
(lp5048
g57
(g66
g59
NtRp5049
(dp5050
g62
(dp5051
g70
I1
ssg71
Nsg64
(lp5052
g57
(g73
g59
NtRp5053
(dp5054
g62
(dp5055
sg71
g5049
sg64
(lp5056
g57
(g78
g59
NtRp5057
(dp5058
g62
(dp5059
sg71
g5053
sg64
(lp5060
g57
(g58
g59
NtRp5061
(dp5062
g62
(dp5063
g70
I1
ssg71
g5057
sg64
(lp5064
g4490
(S't\x07\x00\x00\x00Plugins'
tRp5065
asbasbasbag57
(g73
g59
NtRp5066
(dp5067
g62
(dp5068
sg71
g5049
sg64
(lp5069
g57
(g78
g59
NtRp5070
(dp5071
g62
(dp5072
sg71
g5066
sg64
(lp5073
g57
(g58
g59
NtRp5074
(dp5075
g62
(dp5076
g70
I1
ssg71
g5070
sg64
(lp5077
I00
asbasbasbag57
(g73
g59
NtRp5078
(dp5079
g62
(dp5080
sg71
g5049
sg64
(lp5081
g57
(g78
g59
NtRp5082
(dp5083
g62
(dp5084
sg71
g5078
sg64
(lp5085
g57
(g58
g59
NtRp5086
(dp5087
g62
(dp5088
g70
I1
ssg71
g5082
sg64
(lp5089
Nasbasbasbag57
(g73
g59
NtRp5090
(dp5091
g62
(dp5092
sg71
g5049
sg64
(lp5093
g57
(g78
g59
NtRp5094
(dp5095
g62
(dp5096
sg71
g5090
sg64
(lp5097
g57
(g58
g59
NtRp5098
(dp5099
g62
(dp5100
g70
I1
ssg71
g5094
sg64
(lp5101
(lp5102
(S'plugin_wiki'
p5103
I00
S'http://web2py.com/examples/default/download'
p5104
tp5105
a(g4490
(S's\r\x00\x00\x00Other Plugins'
tRp5106
I00
g4836
tp5107
a(g4490
(S's\x0e\x00\x00\x00Layout Plugins'
tRp5108
I00
g4839
tp5109
aasbasbasbasbasbasbasbasbasbasbasbasbasbasbasbasbasbasbasbag57
(g73
g59
NtRp5110
(dp5111
g62
(dp5112
sg71
g3933
sg64
(lp5113
g57
(g78
g59
NtRp5114
(dp5115
g62
(dp5116
g82
g83
ssg71
g5110
sg64
(lp5117
S'meta'
p5118
asbag57
(g78
g59
NtRp5119
(dp5120
g62
(dp5121
g89
g90
ssg71
g5110
sg64
(lp5122
S':'
asbag57
(g78
g59
NtRp5123
(dp5124
g62
(dp5125
sg71
g5110
sg64
(lp5126
g57
(g58
g59
NtRp5127
(dp5128
g62
(dp5129
g70
I5
ssg71
g5123
sg64
(lp5130
g57
(g66
g59
NtRp5131
(dp5132
g62
(dp5133
g70
I4
ssg71
Nsg64
(lp5134
g57
(g73
g59
NtRp5135
(dp5136
g62
(dp5137
sg71
g5131
sg64
(lp5138
g57
(g78
g59
NtRp5139
(dp5140
g62
(dp5141
g82
g83
ssg71
g5135
sg64
(lp5142
S'author'
p5143
asbag57
(g78
g59
NtRp5144
(dp5145
g62
(dp5146
g89
g90
ssg71
g5135
sg64
(lp5147
S':'
asbag57
(g78
g59
NtRp5148
(dp5149
g62
(dp5150
sg71
g5135
sg64
(lp5151
g57
(g58
g59
NtRp5152
(dp5153
g62
(dp5154
g70
I4
ssg71
g5148
sg64
(lp5155
S'Your Name <you@example.com>'
p5156
asbasbasbag57
(g73
g59
NtRp5157
(dp5158
g62
(dp5159
sg71
g5131
sg64
(lp5160
g57
(g78
g59
NtRp5161
(dp5162
g62
(dp5163
g82
g83
ssg71
g5157
sg64
(lp5164
S'copyright'
p5165
asbag57
(g78
g59
NtRp5166
(dp5167
g62
(dp5168
g89
g90
ssg71
g5157
sg64
(lp5169
S':'
asbag57
(g78
g59
NtRp5170
(dp5171
g62
(dp5172
sg71
g5157
sg64
(lp5173
g57
(g58
g59
NtRp5174
(dp5175
g62
(dp5176
g70
I4
ssg71
g5170
sg64
(lp5177
S'Copyright 2011'
p5178
asbasbasbag57
(g73
g59
NtRp5179
(dp5180
g62
(dp5181
sg71
g5131
sg64
(lp5182
g57
(g78
g59
NtRp5183
(dp5184
g62
(dp5185
g82
g83
ssg71
g5179
sg64
(lp5186
S'description'
p5187
asbag57
(g78
g59
NtRp5188
(dp5189
g62
(dp5190
g89
g90
ssg71
g5179
sg64
(lp5191
S':'
asbag57
(g78
g59
NtRp5192
(dp5193
g62
(dp5194
sg71
g5179
sg64
(lp5195
g57
(g58
g59
NtRp5196
(dp5197
g62
(dp5198
g70
I4
ssg71
g5192
sg64
(lp5199
S'a cool new app'
p5200
asbasbasbag57
(g73
g59
NtRp5201
(dp5202
g62
(dp5203
sg71
g5131
sg64
(lp5204
g57
(g78
g59
NtRp5205
(dp5206
g62
(dp5207
g82
g83
ssg71
g5201
sg64
(lp5208
S'generator'
p5209
asbag57
(g78
g59
NtRp5210
(dp5211
g62
(dp5212
g89
g90
ssg71
g5201
sg64
(lp5213
S':'
asbag57
(g78
g59
NtRp5214
(dp5215
g62
(dp5216
sg71
g5201
sg64
(lp5217
g57
(g58
g59
NtRp5218
(dp5219
g62
(dp5220
g70
I4
ssg71
g5214
sg64
(lp5221
S'Web2py Web Framework'
p5222
asbasbasbag57
(g73
g59
NtRp5223
(dp5224
g62
(dp5225
sg71
g5131
sg64
(lp5226
g57
(g78
g59
NtRp5227
(dp5228
g62
(dp5229
g82
g83
ssg71
g5223
sg64
(lp5230
S'keywords'
p5231
asbag57
(g78
g59
NtRp5232
(dp5233
g62
(dp5234
g89
g90
ssg71
g5223
sg64
(lp5235
S':'
asbag57
(g78
g59
NtRp5236
(dp5237
g62
(dp5238
sg71
g5223
sg64
(lp5239
g57
(g58
g59
NtRp5240
(dp5241
g62
(dp5242
g70
I4
ssg71
g5236
sg64
(lp5243
S'web2py, python, framework'
p5244
asbasbasbasbasbasbasbag57
(g73
g59
NtRp5245
(dp5246
g62
(dp5247
sg71
g3933
sg64
(lp5248
g57
(g78
g59
NtRp5249
(dp5250
g62
(dp5251
g82
g83
ssg71
g5245
sg64
(lp5252
S'postprocessing'
p5253
asbag57
(g78
g59
NtRp5254
(dp5255
g62
(dp5256
g89
g90
ssg71
g5245
sg64
(lp5257
S':'
asbag57
(g78
g59
NtRp5258
(dp5259
g62
(dp5260
sg71
g5245
sg64
(lp5261
g57
(g58
g59
NtRp5262
(dp5263
g62
(dp5264
g70
I5
ssg71
g5258
sg64
(lp5265
g57
(g66
g59
NtRp5266
(dp5267
g62
(dp5268
g70
I4
ssg71
Nsg64
(lp5269
sbasbasbasbag57
(g73
g59
NtRp5270
(dp5271
g62
(dp5272
sg71
g3933
sg64
(lp5273
g57
(g78
g59
NtRp5274
(dp5275
g62
(dp5276
g82
g83
ssg71
g5270
sg64
(lp5277
S'session_file'
p5278
asbag57
(g78
g59
NtRp5279
(dp5280
g62
(dp5281
g89
g90
ssg71
g5270
sg64
(lp5282
S':'
asbag57
(g78
g59
NtRp5283
(dp5284
g62
(dp5285
sg71
g5270
sg64
(lp5286
g57
(g58
g59
NtRp5287
(dp5288
g62
(dp5289
g70
I5
ssg71
g5283
sg64
(lp5290
S"<open file '/Users/emir/Documents/beardcode/web2py/applications/contador/sessions/127.0.0.1-2b69a554-5d73-450d-a1a3-2f7111772fbb', mode 'rb+' at 0x1105671e0>"
p5291
asbasbasbag57
(g73
g59
NtRp5292
(dp5293
g62
(dp5294
sg71
g3933
sg64
(lp5295
g57
(g78
g59
NtRp5296
(dp5297
g62
(dp5298
g82
g83
ssg71
g5292
sg64
(lp5299
S'session_filename'
p5300
asbag57
(g78
g59
NtRp5301
(dp5302
g62
(dp5303
g89
g90
ssg71
g5292
sg64
(lp5304
S':'
asbag57
(g78
g59
NtRp5305
(dp5306
g62
(dp5307
sg71
g5292
sg64
(lp5308
g57
(g58
g59
NtRp5309
(dp5310
g62
(dp5311
g70
I5
ssg71
g5305
sg64
(lp5312
S'/Users/emir/Documents/beardcode/web2py/applications/contador/sessions/127.0.0.1-2b69a554-5d73-450d-a1a3-2f7111772fbb'
p5313
asbasbasbag57
(g73
g59
NtRp5314
(dp5315
g62
(dp5316
sg71
g3933
sg64
(lp5317
g57
(g78
g59
NtRp5318
(dp5319
g62
(dp5320
g82
g83
ssg71
g5314
sg64
(lp5321
S'session_id'
p5322
asbag57
(g78
g59
NtRp5323
(dp5324
g62
(dp5325
g89
g90
ssg71
g5314
sg64
(lp5326
S':'
asbag57
(g78
g59
NtRp5327
(dp5328
g62
(dp5329
sg71
g5314
sg64
(lp5330
g57
(g58
g59
NtRp5331
(dp5332
g62
(dp5333
g70
I5
ssg71
g5327
sg64
(lp5334
S'127.0.0.1-2b69a554-5d73-450d-a1a3-2f7111772fbb'
p5335
asbasbasbag57
(g73
g59
NtRp5336
(dp5337
g62
(dp5338
sg71
g3933
sg64
(lp5339
g57
(g78
g59
NtRp5340
(dp5341
g62
(dp5342
g82
g83
ssg71
g5336
sg64
(lp5343
S'session_id_name'
p5344
asbag57
(g78
g59
NtRp5345
(dp5346
g62
(dp5347
g89
g90
ssg71
g5336
sg64
(lp5348
S':'
asbag57
(g78
g59
NtRp5349
(dp5350
g62
(dp5351
sg71
g5336
sg64
(lp5352
g57
(g58
g59
NtRp5353
(dp5354
g62
(dp5355
g70
I5
ssg71
g5349
sg64
(lp5356
g3990
asbasbasbag57
(g73
g59
NtRp5357
(dp5358
g62
(dp5359
sg71
g3933
sg64
(lp5360
g57
(g78
g59
NtRp5361
(dp5362
g62
(dp5363
g82
g83
ssg71
g5357
sg64
(lp5364
S'session_locked'
p5365
asbag57
(g78
g59
NtRp5366
(dp5367
g62
(dp5368
g89
g90
ssg71
g5357
sg64
(lp5369
S':'
asbag57
(g78
g59
NtRp5370
(dp5371
g62
(dp5372
sg71
g5357
sg64
(lp5373
g57
(g58
g59
NtRp5374
(dp5375
g62
(dp5376
g70
I5
ssg71
g5370
sg64
(lp5377
g2189
asbasbasbag57
(g73
g59
NtRp5378
(dp5379
g62
(dp5380
sg71
g3933
sg64
(lp5381
g57
(g78
g59
NtRp5382
(dp5383
g62
(dp5384
g82
g83
ssg71
g5378
sg64
(lp5385
S'session_new'
p5386
asbag57
(g78
g59
NtRp5387
(dp5388
g62
(dp5389
g89
g90
ssg71
g5378
sg64
(lp5390
S':'
asbag57
(g78
g59
NtRp5391
(dp5392
g62
(dp5393
sg71
g5378
sg64
(lp5394
g57
(g58
g59
NtRp5395
(dp5396
g62
(dp5397
g70
I5
ssg71
g5391
sg64
(lp5398
g100
asbasbasbag57
(g73
g59
NtRp5399
(dp5400
g62
(dp5401
sg71
g3933
sg64
(lp5402
g57
(g78
g59
NtRp5403
(dp5404
g62
(dp5405
g82
g83
ssg71
g5399
sg64
(lp5406
S'status'
p5407
asbag57
(g78
g59
NtRp5408
(dp5409
g62
(dp5410
g89
g90
ssg71
g5399
sg64
(lp5411
S':'
asbag57
(g78
g59
NtRp5412
(dp5413
g62
(dp5414
sg71
g5399
sg64
(lp5415
g57
(g58
g59
NtRp5416
(dp5417
g62
(dp5418
g70
I5
ssg71
g5412
sg64
(lp5419
S'200'
p5420
asbasbasbag57
(g73
g59
NtRp5421
(dp5422
g62
(dp5423
sg71
g3933
sg64
(lp5424
g57
(g78
g59
NtRp5425
(dp5426
g62
(dp5427
g82
g83
ssg71
g5421
sg64
(lp5428
S'subtitle'
p5429
asbag57
(g78
g59
NtRp5430
(dp5431
g62
(dp5432
g89
g90
ssg71
g5421
sg64
(lp5433
S':'
asbag57
(g78
g59
NtRp5434
(dp5435
g62
(dp5436
sg71
g5421
sg64
(lp5437
g57
(g58
g59
NtRp5438
(dp5439
g62
(dp5440
g70
I5
ssg71
g5434
sg64
(lp5441
g4490
(S's\t\x00\x00\x00Adaptame!'
tRp5442
asbasbasbag57
(g73
g59
NtRp5443
(dp5444
g62
(dp5445
sg71
g3933
sg64
(lp5446
g57
(g78
g59
NtRp5447
(dp5448
g62
(dp5449
g82
g83
ssg71
g5443
sg64
(lp5450
S'title'
p5451
asbag57
(g78
g59
NtRp5452
(dp5453
g62
(dp5454
g89
g90
ssg71
g5443
sg64
(lp5455
S':'
asbag57
(g78
g59
NtRp5456
(dp5457
g62
(dp5458
sg71
g5443
sg64
(lp5459
g57
(g58
g59
NtRp5460
(dp5461
g62
(dp5462
g70
I5
ssg71
g5456
sg64
(lp5463
S'Contador'
p5464
asbasbasbag57
(g73
g59
NtRp5465
(dp5466
g62
(dp5467
sg71
g3933
sg64
(lp5468
g57
(g78
g59
NtRp5469
(dp5470
g62
(dp5471
g82
g83
ssg71
g5465
sg64
(lp5472
g2809
asbag57
(g78
g59
NtRp5473
(dp5474
g62
(dp5475
g89
g90
ssg71
g5465
sg64
(lp5476
S':'
asbag57
(g78
g59
NtRp5477
(dp5478
g62
(dp5479
sg71
g5465
sg64
(lp5480
g57
(g58
g59
NtRp5481
(dp5482
g62
(dp5483
g70
I5
ssg71
g5477
sg64
(lp5484
g2822
asbasbasbag57
(g73
g59
NtRp5485
(dp5486
g62
(dp5487
sg71
g3933
sg64
(lp5488
g57
(g78
g59
NtRp5489
(dp5490
g62
(dp5491
g82
g83
ssg71
g5485
sg64
(lp5492
S'view'
p5493
asbag57
(g78
g59
NtRp5494
(dp5495
g62
(dp5496
g89
g90
ssg71
g5485
sg64
(lp5497
S':'
asbag57
(g78
g59
NtRp5498
(dp5499
g62
(dp5500
sg71
g5485
sg64
(lp5501
g57
(g58
g59
NtRp5502
(dp5503
g62
(dp5504
g70
I5
ssg71
g5498
sg64
(lp5505
S'default/index.html'
p5506
asbasbasbasbasbsS'locals'
p5507
(dp5508
S'Service'
p5509
S"<class 'gluon.tools.Service'>"
p5510
sS'OBJECT'
p5511
S"<class 'gluon.html.OBJECT'>"
p5512
sS'SQLDB'
p5513
S"<class 'gluon.dal.DAL'>"
p5514
sg3915
S"<Storage {'_Session__hash': '\\xef~`\\xdd%\\xe6\\xdd... {'version': '21.0.1180.57', 'name': 'Chrome'}}}>"
p5515
sS'LINK'
p5516
S"<class 'gluon.html.LINK'>"
p5517
sS'BR'
p5518
S"<class 'gluon.html.BR'>"
p5519
sS'local_import'
p5520
S'<function <lambda>>'
p5521
sS'OPTGROUP'
p5522
S"<class 'gluon.html.OPTGROUP'>"
p5523
sS'__package__'
p5524
S'None'
p5525
sS'PRE'
p5526
S"<class 'gluon.html.PRE'>"
p5527
sS'IS_INT_IN_RANGE'
p5528
S"<class 'gluon.validators.IS_INT_IN_RANGE'>"
p5529
sS'IS_LOWER'
p5530
S"<class 'gluon.validators.IS_LOWER'>"
p5531
sS'IS_STRONG'
p5532
S"<class 'gluon.validators.IS_STRONG'>"
p5533
sS'cache'
p5534
S'<gluon.cache.Cache object>'
p5535
sS'IS_IN_DB'
p5536
S"<class 'gluon.validators.IS_IN_DB'>"
p5537
sS'TAG'
p5538
S'<gluon.html.__TAG__ object>'
p5539
sS'SQLField'
p5540
S"<class 'gluon.dal.Field'>"
p5541
sS'mail'
p5542
S'<gluon.tools.Mail object>'
p5543
sS'BODY'
p5544
S"<class 'gluon.html.BODY'>"
p5545
sS'IS_DATE_IN_RANGE'
p5546
S"<class 'gluon.validators.IS_DATE_IN_RANGE'>"
p5547
sS'TH'
p5548
S"<class 'gluon.html.TH'>"
p5549
sS'URL'
p5550
S'<function URL>'
p5551
sS'__file__'
p5552
S"'/Users/emir/Documents/beardcode/web2py/applications/contador/views/default/index.html'"
p5553
sS'db'
p5554
S"<DAL {'auth_event': <Table {'origin': <gluon.dal...key': <gluon.dal.Field object at 0x11093f450>}>}>"
p5555
sS'auth'
p5556
S'<gluon.tools.Auth object>'
p5557
sS'P'
S"<class 'gluon.html.P'>"
p5558
sS'TFOOT'
p5559
S"<class 'gluon.html.TFOOT'>"
p5560
sS'XHTML'
p5561
S"<class 'gluon.html.XHTML'>"
p5562
sS'ON'
p5563
g2189
sS'OL'
p5564
S"<class 'gluon.html.OL'>"
p5565
sS'TEXTAREA'
p5566
S"<class 'gluon.html.TEXTAREA'>"
p5567
sS'MENU'
p5568
S"<class 'gluon.html.MENU'>"
p5569
sS'LOAD'
p5570
S'<function LOAD>'
p5571
sS'CODE'
p5572
S"<class 'gluon.html.CODE'>"
p5573
sS'HTTP'
p5574
S"<class 'gluon.http.HTTP'>"
p5575
sS'HR'
p5576
S"<class 'gluon.html.HR'>"
p5577
sS'IS_DATETIME'
p5578
S"<class 'gluon.validators.IS_DATETIME'>"
p5579
sS'HEAD'
p5580
S"<class 'gluon.html.HEAD'>"
p5581
sS'LABEL'
p5582
S"<class 'gluon.html.LABEL'>"
p5583
sS'CLEANUP'
p5584
S"<class 'gluon.validators.CLEANUP'>"
p5585
sS'plugins'
p5586
S'<gluon.tools.PluginManager object>'
p5587
sS'SELECT'
p5588
S"<class 'gluon.html.SELECT'>"
p5589
sS'use_janrain'
p5590
S'<function use_janrain>'
p5591
sS'CENTER'
p5592
S"<class 'gluon.html.CENTER'>"
p5593
sS'prettydate'
p5594
S'<function prettydate>'
p5595
sS'Crud'
p5596
S"<class 'gluon.tools.Crud'>"
p5597
sS'Auth'
p5598
S"<class 'gluon.tools.Auth'>"
p5599
sS'__builtins__'
p5600
S"{'ArithmeticError': <type 'exceptions.ArithmeticError'>, 'AssertionError': <type 'exceptions.AssertionError'>, 'AttributeError': <type 'exceptions.AttributeError'>, 'BaseException': <type 'exceptions.BaseException'>, 'BufferError': <type 'exceptions.BufferError'>, 'BytesWarning': <type 'exceptions.BytesWarning'>, 'DeprecationWarning': <type 'exceptions.DeprecationWarning'>, 'EOFError': <type 'exceptions.EOFError'>, 'Ellipsis': Ellipsis, 'EnvironmentError': <type 'exceptions.EnvironmentError'>, ...}"
p5601
sS'HTML'
p5602
S"<class 'gluon.html.HTML'>"
p5603
sS'SQLFORM'
p5604
S"<class 'gluon.sqlhtml.SQLFORM'>"
p5605
sS'EM'
p5606
S"<class 'gluon.html.EM'>"
p5607
sS'redirect'
p5608
S'<function redirect>'
p5609
sS'FIELDSET'
p5610
S"<class 'gluon.html.FIELDSET'>"
p5611
sS'IS_EQUAL_TO'
p5612
S"<class 'gluon.validators.IS_EQUAL_TO'>"
p5613
sS'embed64'
p5614
S'<function embed64>'
p5615
sS'IS_LIST_OF'
p5616
S"<class 'gluon.validators.IS_LIST_OF'>"
p5617
sS'__name__'
p5618
S"'__restricted__'"
p5619
sS'EMBED'
p5620
S"<class 'gluon.html.EMBED'>"
p5621
sS'_'
S'<function _>'
p5622
sS'FORM'
p5623
S"<class 'gluon.html.FORM'>"
p5624
sS'H2'
p5625
S"<class 'gluon.html.H2'>"
p5626
sS'H3'
p5627
S"<class 'gluon.html.H3'>"
p5628
sS'BUTTON'
p5629
S"<class 'gluon.html.BUTTON'>"
p5630
sS'H1'
p5631
S"<class 'gluon.html.H1'>"
p5632
sS'H6'
p5633
S"<class 'gluon.html.H6'>"
p5634
sS'H4'
p5635
S"<class 'gluon.html.H4'>"
p5636
sS'H5'
p5637
S"<class 'gluon.html.H5'>"
p5638
sS'UL'
p5639
S"<class 'gluon.html.UL'>"
p5640
sS'IS_UPPER'
p5641
S"<class 'gluon.validators.IS_UPPER'>"
p5642
sS'xmlescape'
p5643
S'<function xmlescape>'
p5644
sS'IS_TIME'
p5645
S"<class 'gluon.validators.IS_TIME'>"
p5646
sS'OPTION'
p5647
S"<class 'gluon.html.OPTION'>"
p5648
sS'TITLE'
p5649
S"<class 'gluon.html.TITLE'>"
p5650
sS'CRYPT'
p5651
S"<class 'gluon.validators.CRYPT'>"
p5652
sS'IS_EMPTY_OR'
p5653
S"<class 'gluon.validators.IS_EMPTY_OR'>"
p5654
sS'MARKMIN'
p5655
S"<class 'gluon.html.MARKMIN'>"
p5656
sS'INPUT'
p5657
S"<class 'gluon.html.INPUT'>"
p5658
sS'message'
p5659
S"<lazyT 'Hello World'>"
p5660
sS'COL'
p5661
S"<class 'gluon.html.COL'>"
p5662
sS'service'
p5663
S'<gluon.tools.Service object>'
p5664
sS'SCRIPT'
p5665
S"<class 'gluon.html.SCRIPT'>"
p5666
sS'TABLE'
p5667
S"<class 'gluon.html.TABLE'>"
p5668
sS'IS_IPV4'
p5669
S"<class 'gluon.validators.IS_IPV4'>"
p5670
sS'IS_LENGTH'
p5671
S"<class 'gluon.validators.IS_LENGTH'>"
p5672
sS'XML'
p5673
S"<class 'gluon.html.XML'>"
p5674
sS'B'
S"<class 'gluon.html.B'>"
p5675
sS'IMG'
p5676
S"<class 'gluon.html.IMG'>"
p5677
sS'SQLTABLE'
p5678
S"<class 'gluon.sqlhtml.SQLTABLE'>"
p5679
sS'IS_MATCH'
p5680
S"<class 'gluon.validators.IS_MATCH'>"
p5681
sS'IS_ALPHANUMERIC'
p5682
S"<class 'gluon.validators.IS_ALPHANUMERIC'>"
p5683
sS'SPAN'
p5684
S"<class 'gluon.html.SPAN'>"
p5685
sS'IS_SLUG'
p5686
S"<class 'gluon.validators.IS_SLUG'>"
p5687
sS'BEAUTIFY'
p5688
S"<class 'gluon.html.BEAUTIFY'>"
p5689
sS'META'
p5690
S"<class 'gluon.html.META'>"
p5691
sS'IS_DATE'
p5692
S"<class 'gluon.validators.IS_DATE'>"
p5693
sS'IS_EMAIL'
p5694
S"<class 'gluon.validators.IS_EMAIL'>"
p5695
sS'IS_NOT_EMPTY'
p5696
S"<class 'gluon.validators.IS_NOT_EMPTY'>"
p5697
sS'IS_FLOAT_IN_RANGE'
p5698
S"<class 'gluon.validators.IS_FLOAT_IN_RANGE'>"
p5699
sS'TBODY'
p5700
S"<class 'gluon.html.TBODY'>"
p5701
sS'CAT'
p5702
S"<class 'gluon.html.CAT'>"
p5703
sS'Field'
p5704
S"<class 'gluon.dal.Field'>"
p5705
sS'DIV'
p5706
S"<class 'gluon.html.DIV'>"
p5707
sS'LEGEND'
p5708
S"<class 'gluon.html.LEGEND'>"
p5709
sS'COLGROUP'
p5710
S"<class 'gluon.html.COLGROUP'>"
p5711
sS'DAL'
p5712
S"<class 'gluon.dal.DAL'>"
p5713
sS'TT'
p5714
S"<class 'gluon.html.TT'>"
p5715
sS'TR'
p5716
S"<class 'gluon.html.TR'>"
p5717
sS'LI'
p5718
S"<class 'gluon.html.LI'>"
p5719
sS'IFRAME'
p5720
S"<class 'gluon.html.IFRAME'>"
p5721
sS'TD'
p5722
S"<class 'gluon.html.TD'>"
p5723
sS'PluginManager'
p5724
S"<class 'gluon.tools.PluginManager'>"
p5725
sS'IS_URL'
p5726
S"<class 'gluon.validators.IS_URL'>"
p5727
sS'A'
S"<class 'gluon.html.A'>"
p5728
sS'STYLE'
p5729
S"<class 'gluon.html.STYLE'>"
p5730
sS'IS_DATETIME_IN_RANGE'
p5731
S"<class 'gluon.validators.IS_DATETIME_IN_RANGE'>"
p5732
sS'IS_IMAGE'
p5733
S"<class 'gluon.validators.IS_IMAGE'>"
p5734
sS'I'
S"<class 'gluon.html.I'>"
p5735
sS'crud'
p5736
S'<gluon.tools.Crud object>'
p5737
sS'IS_NOT_IN_DB'
p5738
S"<class 'gluon.validators.IS_NOT_IN_DB'>"
p5739
sg3928
S"<Storage {'body': <cStringIO.StringO object at 0...> at 0x110573410>, 'view': 'default/index.html'}>"
p5740
sS'THEAD'
p5741
S"<class 'gluon.html.THEAD'>"
p5742
sS'IS_NULL_OR'
p5743
S"<class 'gluon.validators.IS_EMPTY_OR'>"
p5744
sg56
S"<Storage {'body': <cStringIO.StringO object at 0..._vars': <Storage {}>, 'post_vars': <Storage {}>}>"
p5745
sS'IS_EXPR'
p5746
S"<class 'gluon.validators.IS_EXPR'>"
p5747
sS'T'
S'<gluon.languages.translator object>'
p5748
sS'IS_IN_SET'
p5749
S"<class 'gluon.validators.IS_IN_SET'>"
p5750
sS'IS_UPLOAD_FILENAME'
p5751
S"<class 'gluon.validators.IS_UPLOAD_FILENAME'>"
p5752
sS'IS_DECIMAL_IN_RANGE'
p5753
S"<class 'gluon.validators.IS_DECIMAL_IN_RANGE'>"
p5754
sssS'traceback'
p5755
S'Traceback (most recent call last):\n  File "/Users/emir/Documents/beardcode/web2py/gluon/restricted.py", line 205, in restricted\n    exec ccode in environment\n  File "/Users/emir/Documents/beardcode/web2py/applications/contador/views/default/index.html", line 2, in <module>\n    <head>\nNameError: name \'nv\' is not defined\n'
p5756
s.